Archive member included to satisfy reference by file (symbol)

c:/program files/microchip/xc32/v2.40/bin/bin/../../lib/gcc/pic32c/6.2.1/../../../../pic32c/lib/v7e-m/fpv4-sp/hard\libpic32c.a(data_init.o)
                              build/same54_xplained_pro/production/_ext/602300742/startup_xc32.o (__pic32c_data_initialization)
c:/program files/microchip/xc32/v2.40/bin/bin/../../lib/gcc/pic32c/6.2.1/v7e-m/fpv4-sp/hard\libgcc.a(_arm_addsubdf3.o)
                              build/same54_xplained_pro/production/_ext/1483874177/mu_port.o (__aeabi_i2d)
c:/program files/microchip/xc32/v2.40/bin/bin/../../lib/gcc/pic32c/6.2.1/v7e-m/fpv4-sp/hard\libgcc.a(_arm_muldivdf3.o)
                              build/same54_xplained_pro/production/_ext/1483874177/mu_port.o (__aeabi_ddiv)
c:/program files/microchip/xc32/v2.40/bin/bin/../../lib/gcc/pic32c/6.2.1/v7e-m/fpv4-sp/hard\libgcc.a(_arm_truncdfsf2.o)
                              build/same54_xplained_pro/production/_ext/1483874177/mu_port.o (__aeabi_d2f)
c:/program files/microchip/xc32/v2.40/bin/bin/../../lib/gcc/pic32c/6.2.1/v7e-m/fpv4-sp/hard\libgcc.a(_aeabi_uldivmod.o)
                              build/same54_xplained_pro/production/_ext/1547227007/plib_sercom2_usart.o (__aeabi_uldivmod)
c:/program files/microchip/xc32/v2.40/bin/bin/../../lib/gcc/pic32c/6.2.1/v7e-m/fpv4-sp/hard\libgcc.a(_udivmoddi4.o)
                              c:/program files/microchip/xc32/v2.40/bin/bin/../../lib/gcc/pic32c/6.2.1/v7e-m/fpv4-sp/hard\libgcc.a(_aeabi_uldivmod.o) (__udivmoddi4)
c:/program files/microchip/xc32/v2.40/bin/bin/../../lib/gcc/pic32c/6.2.1/v7e-m/fpv4-sp/hard\libgcc.a(_dvmd_tls.o)
                              c:/program files/microchip/xc32/v2.40/bin/bin/../../lib/gcc/pic32c/6.2.1/v7e-m/fpv4-sp/hard\libgcc.a(_aeabi_uldivmod.o) (__aeabi_ldiv0)
c:/program files/microchip/xc32/v2.40/bin/bin/../../lib/gcc/pic32c/6.2.1/../../../../pic32c/lib/v7e-m/fpv4-sp/hard\libc_nano.a(lib_a-init.o)
                              build/same54_xplained_pro/production/_ext/602300742/startup_xc32.o (__libc_init_array)
c:/program files/microchip/xc32/v2.40/bin/bin/../../lib/gcc/pic32c/6.2.1/../../../../pic32c/lib/v7e-m/fpv4-sp/hard\libc_nano.a(lib_a-memcpy-stub.o)
                              build/same54_xplained_pro/production/_ext/265365281/mu_substr.o (memcpy)
c:/program files/microchip/xc32/v2.40/bin/bin/../../lib/gcc/pic32c/6.2.1/../../../../pic32c/lib/v7e-m/fpv4-sp/hard\libc_nano.a(lib_a-memmove.o)
                              build/same54_xplained_pro/production/_ext/265365281/mu_pstore.o (memmove)
c:/program files/microchip/xc32/v2.40/bin/bin/../../lib/gcc/pic32c/6.2.1/../../../../pic32c/lib/v7e-m/fpv4-sp/hard\libc_nano.a(_lib_a-printf.cdnopsuxX.o)
                              (_printf_cdnopsuxX)
c:/program files/microchip/xc32/v2.40/bin/bin/../../lib/gcc/pic32c/6.2.1/../../../../pic32c/lib/v7e-m/fpv4-sp/hard\libc_nano.a(lib_a-puts.o)
                              build/same54_xplained_pro/production/_ext/1483874177/screen_redraw_task.o (puts)
c:/program files/microchip/xc32/v2.40/bin/bin/../../lib/gcc/pic32c/6.2.1/../../../../pic32c/lib/v7e-m/fpv4-sp/hard\libc_nano.a(lib_a-strlen.o)
                              build/same54_xplained_pro/production/_ext/265365281/mu_str.o (strlen)
c:/program files/microchip/xc32/v2.40/bin/bin/../../lib/gcc/pic32c/6.2.1/../../../../pic32c/lib/v7e-m/fpv4-sp/hard\libc_nano.a(lib_a-wbuf.o)
                              c:/program files/microchip/xc32/v2.40/bin/bin/../../lib/gcc/pic32c/6.2.1/../../../../pic32c/lib/v7e-m/fpv4-sp/hard\libc_nano.a(lib_a-puts.o) (__swbuf_r)
c:/program files/microchip/xc32/v2.40/bin/bin/../../lib/gcc/pic32c/6.2.1/../../../../pic32c/lib/v7e-m/fpv4-sp/hard\libc_nano.a(lib_a-wsetup.o)
                              c:/program files/microchip/xc32/v2.40/bin/bin/../../lib/gcc/pic32c/6.2.1/../../../../pic32c/lib/v7e-m/fpv4-sp/hard\libc_nano.a(lib_a-puts.o) (__swsetup_r)
c:/program files/microchip/xc32/v2.40/bin/bin/../../lib/gcc/pic32c/6.2.1/../../../../pic32c/lib/v7e-m/fpv4-sp/hard\libc_nano.a(lib_a-fflush.o)
                              c:/program files/microchip/xc32/v2.40/bin/bin/../../lib/gcc/pic32c/6.2.1/../../../../pic32c/lib/v7e-m/fpv4-sp/hard\libc_nano.a(lib_a-wbuf.o) (_fflush_r)
c:/program files/microchip/xc32/v2.40/bin/bin/../../lib/gcc/pic32c/6.2.1/../../../../pic32c/lib/v7e-m/fpv4-sp/hard\libc_nano.a(lib_a-findfp.o)
                              c:/program files/microchip/xc32/v2.40/bin/bin/../../lib/gcc/pic32c/6.2.1/../../../../pic32c/lib/v7e-m/fpv4-sp/hard\libc_nano.a(lib_a-puts.o) (__sinit)
c:/program files/microchip/xc32/v2.40/bin/bin/../../lib/gcc/pic32c/6.2.1/../../../../pic32c/lib/v7e-m/fpv4-sp/hard\libc_nano.a(lib_a-fwalk.o)
                              c:/program files/microchip/xc32/v2.40/bin/bin/../../lib/gcc/pic32c/6.2.1/../../../../pic32c/lib/v7e-m/fpv4-sp/hard\libc_nano.a(lib_a-fflush.o) (_fwalk_reent)
c:/program files/microchip/xc32/v2.40/bin/bin/../../lib/gcc/pic32c/6.2.1/../../../../pic32c/lib/v7e-m/fpv4-sp/hard\libc_nano.a(lib_a-impure.o)
                              c:/program files/microchip/xc32/v2.40/bin/bin/../../lib/gcc/pic32c/6.2.1/../../../../pic32c/lib/v7e-m/fpv4-sp/hard\libc_nano.a(lib_a-fflush.o) (_global_impure_ptr)
c:/program files/microchip/xc32/v2.40/bin/bin/../../lib/gcc/pic32c/6.2.1/../../../../pic32c/lib/v7e-m/fpv4-sp/hard\libc_nano.a(lib_a-makebuf.o)
                              c:/program files/microchip/xc32/v2.40/bin/bin/../../lib/gcc/pic32c/6.2.1/../../../../pic32c/lib/v7e-m/fpv4-sp/hard\libc_nano.a(lib_a-wsetup.o) (__smakebuf_r)
c:/program files/microchip/xc32/v2.40/bin/bin/../../lib/gcc/pic32c/6.2.1/../../../../pic32c/lib/v7e-m/fpv4-sp/hard\libc_nano.a(lib_a-memset.o)
                              c:/program files/microchip/xc32/v2.40/bin/bin/../../lib/gcc/pic32c/6.2.1/../../../../pic32c/lib/v7e-m/fpv4-sp/hard\libc_nano.a(lib_a-findfp.o) (memset)
c:/program files/microchip/xc32/v2.40/bin/bin/../../lib/gcc/pic32c/6.2.1/../../../../pic32c/lib/v7e-m/fpv4-sp/hard\libc_nano.a(lib_a-nano-freer.o)
                              c:/program files/microchip/xc32/v2.40/bin/bin/../../lib/gcc/pic32c/6.2.1/../../../../pic32c/lib/v7e-m/fpv4-sp/hard\libc_nano.a(lib_a-wsetup.o) (_free_r)
c:/program files/microchip/xc32/v2.40/bin/bin/../../lib/gcc/pic32c/6.2.1/../../../../pic32c/lib/v7e-m/fpv4-sp/hard\libc_nano.a(lib_a-nano-mallocr.o)
                              c:/program files/microchip/xc32/v2.40/bin/bin/../../lib/gcc/pic32c/6.2.1/../../../../pic32c/lib/v7e-m/fpv4-sp/hard\libc_nano.a(lib_a-findfp.o) (_malloc_r)
c:/program files/microchip/xc32/v2.40/bin/bin/../../lib/gcc/pic32c/6.2.1/../../../../pic32c/lib/v7e-m/fpv4-sp/hard\libc_nano.a(_lib_a-nano-vfprintf.cdnopsuxX.o)
                              c:/program files/microchip/xc32/v2.40/bin/bin/../../lib/gcc/pic32c/6.2.1/../../../../pic32c/lib/v7e-m/fpv4-sp/hard\libc_nano.a(_lib_a-printf.cdnopsuxX.o) (_vfprintf_cdnopsuxX)
c:/program files/microchip/xc32/v2.40/bin/bin/../../lib/gcc/pic32c/6.2.1/../../../../pic32c/lib/v7e-m/fpv4-sp/hard\libc_nano.a(lib_a-nano-vfprintf_i.o)
                              c:/program files/microchip/xc32/v2.40/bin/bin/../../lib/gcc/pic32c/6.2.1/../../../../pic32c/lib/v7e-m/fpv4-sp/hard\libc_nano.a(_lib_a-nano-vfprintf.cdnopsuxX.o) (_printf_common)
c:/program files/microchip/xc32/v2.40/bin/bin/../../lib/gcc/pic32c/6.2.1/../../../../pic32c/lib/v7e-m/fpv4-sp/hard\libc_nano.a(lib_a-sbrkr.o)
                              c:/program files/microchip/xc32/v2.40/bin/bin/../../lib/gcc/pic32c/6.2.1/../../../../pic32c/lib/v7e-m/fpv4-sp/hard\libc_nano.a(lib_a-nano-mallocr.o) (_sbrk_r)
c:/program files/microchip/xc32/v2.40/bin/bin/../../lib/gcc/pic32c/6.2.1/../../../../pic32c/lib/v7e-m/fpv4-sp/hard\libc_nano.a(lib_a-__ssfputs.o)
                              c:/program files/microchip/xc32/v2.40/bin/bin/../../lib/gcc/pic32c/6.2.1/../../../../pic32c/lib/v7e-m/fpv4-sp/hard\libc_nano.a(_lib_a-nano-vfprintf.cdnopsuxX.o) (__ssfputs_r)
c:/program files/microchip/xc32/v2.40/bin/bin/../../lib/gcc/pic32c/6.2.1/../../../../pic32c/lib/v7e-m/fpv4-sp/hard\libc_nano.a(lib_a-stdio.o)
                              c:/program files/microchip/xc32/v2.40/bin/bin/../../lib/gcc/pic32c/6.2.1/../../../../pic32c/lib/v7e-m/fpv4-sp/hard\libc_nano.a(lib_a-findfp.o) (__sread)
c:/program files/microchip/xc32/v2.40/bin/bin/../../lib/gcc/pic32c/6.2.1/../../../../pic32c/lib/v7e-m/fpv4-sp/hard\libc_nano.a(lib_a-writer.o)
                              c:/program files/microchip/xc32/v2.40/bin/bin/../../lib/gcc/pic32c/6.2.1/../../../../pic32c/lib/v7e-m/fpv4-sp/hard\libc_nano.a(lib_a-stdio.o) (_write_r)
c:/program files/microchip/xc32/v2.40/bin/bin/../../lib/gcc/pic32c/6.2.1/../../../../pic32c/lib/v7e-m/fpv4-sp/hard\libc_nano.a(lib_a-closer.o)
                              c:/program files/microchip/xc32/v2.40/bin/bin/../../lib/gcc/pic32c/6.2.1/../../../../pic32c/lib/v7e-m/fpv4-sp/hard\libc_nano.a(lib_a-stdio.o) (_close_r)
c:/program files/microchip/xc32/v2.40/bin/bin/../../lib/gcc/pic32c/6.2.1/../../../../pic32c/lib/v7e-m/fpv4-sp/hard\libc_nano.a(lib_a-fputwc.o)
                              c:/program files/microchip/xc32/v2.40/bin/bin/../../lib/gcc/pic32c/6.2.1/../../../../pic32c/lib/v7e-m/fpv4-sp/hard\libc_nano.a(lib_a-__ssfputs.o) (_fputwc_r)
c:/program files/microchip/xc32/v2.40/bin/bin/../../lib/gcc/pic32c/6.2.1/../../../../pic32c/lib/v7e-m/fpv4-sp/hard\libc_nano.a(lib_a-fstatr.o)
                              c:/program files/microchip/xc32/v2.40/bin/bin/../../lib/gcc/pic32c/6.2.1/../../../../pic32c/lib/v7e-m/fpv4-sp/hard\libc_nano.a(lib_a-makebuf.o) (_fstat_r)
c:/program files/microchip/xc32/v2.40/bin/bin/../../lib/gcc/pic32c/6.2.1/../../../../pic32c/lib/v7e-m/fpv4-sp/hard\libc_nano.a(lib_a-isattyr.o)
                              c:/program files/microchip/xc32/v2.40/bin/bin/../../lib/gcc/pic32c/6.2.1/../../../../pic32c/lib/v7e-m/fpv4-sp/hard\libc_nano.a(lib_a-makebuf.o) (_isatty_r)
c:/program files/microchip/xc32/v2.40/bin/bin/../../lib/gcc/pic32c/6.2.1/../../../../pic32c/lib/v7e-m/fpv4-sp/hard\libc_nano.a(lib_a-locale.o)
                              c:/program files/microchip/xc32/v2.40/bin/bin/../../lib/gcc/pic32c/6.2.1/../../../../pic32c/lib/v7e-m/fpv4-sp/hard\libc_nano.a(lib_a-fputwc.o) (__locale_mb_cur_max)
c:/program files/microchip/xc32/v2.40/bin/bin/../../lib/gcc/pic32c/6.2.1/../../../../pic32c/lib/v7e-m/fpv4-sp/hard\libc_nano.a(lib_a-lseekr.o)
                              c:/program files/microchip/xc32/v2.40/bin/bin/../../lib/gcc/pic32c/6.2.1/../../../../pic32c/lib/v7e-m/fpv4-sp/hard\libc_nano.a(lib_a-stdio.o) (_lseek_r)
c:/program files/microchip/xc32/v2.40/bin/bin/../../lib/gcc/pic32c/6.2.1/../../../../pic32c/lib/v7e-m/fpv4-sp/hard\libc_nano.a(lib_a-mbtowc_r.o)
                              c:/program files/microchip/xc32/v2.40/bin/bin/../../lib/gcc/pic32c/6.2.1/../../../../pic32c/lib/v7e-m/fpv4-sp/hard\libc_nano.a(lib_a-locale.o) (__ascii_mbtowc)
c:/program files/microchip/xc32/v2.40/bin/bin/../../lib/gcc/pic32c/6.2.1/../../../../pic32c/lib/v7e-m/fpv4-sp/hard\libc_nano.a(lib_a-memchr.o)
                              c:/program files/microchip/xc32/v2.40/bin/bin/../../lib/gcc/pic32c/6.2.1/../../../../pic32c/lib/v7e-m/fpv4-sp/hard\libc_nano.a(_lib_a-nano-vfprintf.cdnopsuxX.o) (memchr)
c:/program files/microchip/xc32/v2.40/bin/bin/../../lib/gcc/pic32c/6.2.1/../../../../pic32c/lib/v7e-m/fpv4-sp/hard\libc_nano.a(lib_a-mlock.o)
                              c:/program files/microchip/xc32/v2.40/bin/bin/../../lib/gcc/pic32c/6.2.1/../../../../pic32c/lib/v7e-m/fpv4-sp/hard\libc_nano.a(lib_a-nano-freer.o) (__malloc_lock)
c:/program files/microchip/xc32/v2.40/bin/bin/../../lib/gcc/pic32c/6.2.1/../../../../pic32c/lib/v7e-m/fpv4-sp/hard\libc_nano.a(lib_a-readr.o)
                              c:/program files/microchip/xc32/v2.40/bin/bin/../../lib/gcc/pic32c/6.2.1/../../../../pic32c/lib/v7e-m/fpv4-sp/hard\libc_nano.a(lib_a-stdio.o) (_read_r)
c:/program files/microchip/xc32/v2.40/bin/bin/../../lib/gcc/pic32c/6.2.1/../../../../pic32c/lib/v7e-m/fpv4-sp/hard\libc_nano.a(lib_a-reent.o)
                              c:/program files/microchip/xc32/v2.40/bin/bin/../../lib/gcc/pic32c/6.2.1/../../../../pic32c/lib/v7e-m/fpv4-sp/hard\libc_nano.a(lib_a-sbrkr.o) (errno)
c:/program files/microchip/xc32/v2.40/bin/bin/../../lib/gcc/pic32c/6.2.1/../../../../pic32c/lib/v7e-m/fpv4-sp/hard\libc_nano.a(lib_a-strcmp.o)
                              c:/program files/microchip/xc32/v2.40/bin/bin/../../lib/gcc/pic32c/6.2.1/../../../../pic32c/lib/v7e-m/fpv4-sp/hard\libc_nano.a(lib_a-locale.o) (strcmp)
c:/program files/microchip/xc32/v2.40/bin/bin/../../lib/gcc/pic32c/6.2.1/../../../../pic32c/lib/v7e-m/fpv4-sp/hard\libc_nano.a(lib_a-wcrtomb.o)
                              c:/program files/microchip/xc32/v2.40/bin/bin/../../lib/gcc/pic32c/6.2.1/../../../../pic32c/lib/v7e-m/fpv4-sp/hard\libc_nano.a(lib_a-fputwc.o) (_wcrtomb_r)
c:/program files/microchip/xc32/v2.40/bin/bin/../../lib/gcc/pic32c/6.2.1/../../../../pic32c/lib/v7e-m/fpv4-sp/hard\libc_nano.a(lib_a-wctomb_r.o)
                              c:/program files/microchip/xc32/v2.40/bin/bin/../../lib/gcc/pic32c/6.2.1/../../../../pic32c/lib/v7e-m/fpv4-sp/hard\libc_nano.a(lib_a-locale.o) (__ascii_wctomb)
c:/program files/microchip/xc32/v2.40/bin/bin/../../lib/gcc/pic32c/6.2.1/../../../../pic32c/lib/v7e-m/fpv4-sp/hard\libc_nano.a(lib_a-ctype_.o)
                              c:/program files/microchip/xc32/v2.40/bin/bin/../../lib/gcc/pic32c/6.2.1/../../../../pic32c/lib/v7e-m/fpv4-sp/hard\libc_nano.a(lib_a-locale.o) (_ctype_)
c:/program files/microchip/xc32/v2.40/bin/bin/../../lib/gcc/pic32c/6.2.1/../../../../pic32c/lib/v7e-m/fpv4-sp/hard\libpic32c.a(_close.o)
                              c:/program files/microchip/xc32/v2.40/bin/bin/../../lib/gcc/pic32c/6.2.1/../../../../pic32c/lib/v7e-m/fpv4-sp/hard\libc_nano.a(lib_a-closer.o) (_close)
c:/program files/microchip/xc32/v2.40/bin/bin/../../lib/gcc/pic32c/6.2.1/../../../../pic32c/lib/v7e-m/fpv4-sp/hard\libpic32c.a(_fstat.o)
                              c:/program files/microchip/xc32/v2.40/bin/bin/../../lib/gcc/pic32c/6.2.1/../../../../pic32c/lib/v7e-m/fpv4-sp/hard\libc_nano.a(lib_a-fstatr.o) (_fstat)
c:/program files/microchip/xc32/v2.40/bin/bin/../../lib/gcc/pic32c/6.2.1/../../../../pic32c/lib/v7e-m/fpv4-sp/hard\libpic32c.a(_isatty.o)
                              c:/program files/microchip/xc32/v2.40/bin/bin/../../lib/gcc/pic32c/6.2.1/../../../../pic32c/lib/v7e-m/fpv4-sp/hard\libc_nano.a(lib_a-isattyr.o) (_isatty)
c:/program files/microchip/xc32/v2.40/bin/bin/../../lib/gcc/pic32c/6.2.1/../../../../pic32c/lib/v7e-m/fpv4-sp/hard\libpic32c.a(_lseek.o)
                              c:/program files/microchip/xc32/v2.40/bin/bin/../../lib/gcc/pic32c/6.2.1/../../../../pic32c/lib/v7e-m/fpv4-sp/hard\libc_nano.a(lib_a-lseekr.o) (_lseek)
c:/program files/microchip/xc32/v2.40/bin/bin/../../lib/gcc/pic32c/6.2.1/../../../../pic32c/lib/v7e-m/fpv4-sp/hard\libpic32c.a(_read.o)
                              c:/program files/microchip/xc32/v2.40/bin/bin/../../lib/gcc/pic32c/6.2.1/../../../../pic32c/lib/v7e-m/fpv4-sp/hard\libc_nano.a(lib_a-readr.o) (_read)
c:/program files/microchip/xc32/v2.40/bin/bin/../../lib/gcc/pic32c/6.2.1/../../../../pic32c/lib/v7e-m/fpv4-sp/hard\libpic32c.a(sbrk.o)
                              c:/program files/microchip/xc32/v2.40/bin/bin/../../lib/gcc/pic32c/6.2.1/../../../../pic32c/lib/v7e-m/fpv4-sp/hard\libc_nano.a(lib_a-sbrkr.o) (_sbrk)
c:/program files/microchip/xc32/v2.40/bin/bin/../../lib/gcc/pic32c/6.2.1/../../../../pic32c/lib/v7e-m/fpv4-sp/hard\libpic32c.a(_write.o)
                              c:/program files/microchip/xc32/v2.40/bin/bin/../../lib/gcc/pic32c/6.2.1/../../../../pic32c/lib/v7e-m/fpv4-sp/hard\libc_nano.a(lib_a-writer.o) (_write)
c:/program files/microchip/xc32/v2.40/bin/bin/../../lib/gcc/pic32c/6.2.1/../../../../pic32c/lib/v7e-m/fpv4-sp/hard\libpic32c.a(close.o)
                              c:/program files/microchip/xc32/v2.40/bin/bin/../../lib/gcc/pic32c/6.2.1/../../../../pic32c/lib/v7e-m/fpv4-sp/hard\libpic32c.a(_close.o) (close)
c:/program files/microchip/xc32/v2.40/bin/bin/../../lib/gcc/pic32c/6.2.1/../../../../pic32c/lib/v7e-m/fpv4-sp/hard\libpic32c.a(fstat.o)
                              c:/program files/microchip/xc32/v2.40/bin/bin/../../lib/gcc/pic32c/6.2.1/../../../../pic32c/lib/v7e-m/fpv4-sp/hard\libpic32c.a(_fstat.o) (fstat)
c:/program files/microchip/xc32/v2.40/bin/bin/../../lib/gcc/pic32c/6.2.1/../../../../pic32c/lib/v7e-m/fpv4-sp/hard\libpic32c.a(isatty.o)
                              c:/program files/microchip/xc32/v2.40/bin/bin/../../lib/gcc/pic32c/6.2.1/../../../../pic32c/lib/v7e-m/fpv4-sp/hard\libpic32c.a(_isatty.o) (isatty)
c:/program files/microchip/xc32/v2.40/bin/bin/../../lib/gcc/pic32c/6.2.1/../../../../pic32c/lib/v7e-m/fpv4-sp/hard\libpic32c.a(lseek.o)
                              c:/program files/microchip/xc32/v2.40/bin/bin/../../lib/gcc/pic32c/6.2.1/../../../../pic32c/lib/v7e-m/fpv4-sp/hard\libpic32c.a(_lseek.o) (lseek)
c:/program files/microchip/xc32/v2.40/bin/bin/../../lib/gcc/pic32c/6.2.1/../../../../pic32c/lib/v7e-m/fpv4-sp/hard\libpic32c.a(read.o)
                              c:/program files/microchip/xc32/v2.40/bin/bin/../../lib/gcc/pic32c/6.2.1/../../../../pic32c/lib/v7e-m/fpv4-sp/hard\libpic32c.a(_read.o) (read)
c:/program files/microchip/xc32/v2.40/bin/bin/../../lib/gcc/pic32c/6.2.1/../../../../pic32c/lib/v7e-m/fpv4-sp/hard\libpic32c.a(write.o)
                              c:/program files/microchip/xc32/v2.40/bin/bin/../../lib/gcc/pic32c/6.2.1/../../../../pic32c/lib/v7e-m/fpv4-sp/hard\libpic32c.a(_write.o) (write)

Allocating common symbols
Common symbol       size              file

errno               0x4               c:/program files/microchip/xc32/v2.40/bin/bin/../../lib/gcc/pic32c/6.2.1/../../../../pic32c/lib/v7e-m/fpv4-sp/hard\libc_nano.a(lib_a-reent.o)
sercom2USARTObj     0x30              build/same54_xplained_pro/production/_ext/1547227007/plib_sercom2_usart.o
eicCallbackObject   0xc0              build/same54_xplained_pro/production/_ext/18086165/plib_eic.o
rtcObj              0xc               build/same54_xplained_pro/production/_ext/18098999/plib_rtc_timer.o

Microchip PIC32 Memory-Usage Report

ROM Program-Memory Usage
section                    address  length [bytes]      (dec)  Description
-------                 ----------  -------------------------  -----------
.vectors                         0          0x264         612   
.text                        0x264           0x20          32  App's exec code 
.text._vfprintf_r_cdnop      0x284          0x3dc         988   
.dinit                       0x660          0x300         768   
.rodata                      0x960          0x1d8         472  Read-only const 
.text.screen_redraw_tas      0xb38          0x144         324   
.text.__sflush_r             0xc7c          0x110         272   
.rodata._ctype_              0xd8c          0x101         257   
.text._printf_common         0xe8e           0xec         236   
.text.default_idle_fn        0xf7a            0x2           2   
.text.SERCOM2_USART_Int      0xf7c           0xe8         232   
.text.__swsetup_r           0x1064           0xdc         220   
.text._puts_r               0x1140           0xcc         204   
.text.mulib_tasker_init     0x120c           0xc8         200   
.text.__swbuf_r             0x12d4           0xbc         188   
.text._malloc_r             0x1390           0xbc         188   
.text.CLOCK_Initialize      0x144c           0xa0         160   
.text.mu_sched_set_idle     0x14ec            0x4           4   
.text                       0x14f0           0xa0         160  App's exec code 
.text._free_r               0x1590           0x9c         156   
.text.Reset_Handler         0x162c           0x98         152   
.text.EIC_Initialize        0x16c4           0x88         136   
.text.__fputwc              0x174c           0x82         130   
.text.EVSYS_Initialize      0x17ce            0x2           2   
.text.kbd_task_fn           0x17d0           0x80         128   
.text.__pic32c_data_ini     0x1850           0x80         128   
.text.__sfp                 0x18d0           0x78         120   
.text.__smakebuf_r          0x1948           0x78         120   
.text.mu_sched_step         0x19c0           0x6a         106   
.text.sched_task_at         0x1a2a           0x68         104   
.text.Dummy_Handler         0x1a92            0x2           2   
.text.NVIC_Initialize       0x1a94           0x68         104   
.text.idle_task_fn          0x1afc           0x68         104   
.text.mu_sched_get_task     0x1b64           0x66         102   
.text.NonMaskableInt_Ha     0x1bca            0x2           2   
.text.__sinit               0x1bcc           0x60          96   
.text.mu_sched_remove_t     0x1c2c           0x54          84   
.text.SERCOM2_USART_Ini     0x1c80           0x54          84   
.text._fflush_r             0x1cd4           0x54          84   
.rodata                     0x1d28           0x50          80  Read-only const 
.text._wcrtomb_r            0x1d78           0x50          80   
.text.__ssfputs_r           0x1dc8           0x4a          74   
.text.HardFault_Handler     0x1e12            0x2           2   
.text.SERCOM2_USART_Wri     0x1e14           0x48          72   
.text.__libc_init_array     0x1e5c           0x48          72   
.text.std.isra.0            0x1ea4           0x48          72   
.text.__swhatbuf_r          0x1eec           0x48          72   
.text.idle_task_init        0x1f34           0x44          68   
.text                       0x1f78           0x40          64  App's exec code 
.text.SERCOM2_USART_Rea     0x1fb8           0x40          64   
.text.led_task_fn           0x1ff8           0x40          64   
.text.PORT_Initialize       0x2038           0x3c          60   
.text.RTC_Initialize        0x2074           0x3c          60   
.text._fwalk_reent          0x20b0           0x3c          60   
.text.write                 0x20ec           0x3c          60   
.text.mu_task_call          0x2128           0x38          56   
.text.kbd_task_init         0x2160           0x38          56   
.text.__swrite              0x2198           0x38          56   
.text.mu_sched_init         0x21d0           0x34          52   
.text.button_task_init      0x2204           0x34          52   
.text.memmove               0x2238           0x34          52   
.rodata                     0x226c           0x33          51  Read-only const 
.text.mu_spscq_get          0x22a0           0x30          48   
.text.SYS_Initialize        0x22d0           0x30          48   
.text.__sfputc_r            0x2300           0x30          48   
.text.EIC_CallbackRegis     0x2330           0x2c          44   
.text.mu_port_init          0x235c           0x2c          44   
.text.__sfmoreglue          0x2388           0x2c          44   
.text._sbrk                 0x23b4           0x2c          44   
.text.mu_sched_reschedu     0x23e0           0x2a          42   
.text.mu_spscq_put          0x240a           0x28          40   
.text.DebugMonitor_Hand     0x2432            0x2           2   
.text.RTC_InterruptHand     0x2434           0x28          40   
.text.read                  0x245c           0x28          40   
.text.EIC_EXTINT_15_Int     0x2484           0x24          36   
.text.SERCOM2_USART_Err     0x24a8           0x24          36   
.text.kbd_task_set_low_     0x24cc           0x24          36   
.rodata                     0x24f0           0x24          36  Read-only const 
.text.screen_redraw_tas     0x2514           0x24          36   
.text._printf_cdnopsuxX     0x2538           0x24          36   
.text.__sseek               0x255c           0x24          36   
.text._write_r              0x2580           0x24          36   
.text._fstat_r              0x25a4           0x24          36   
.text._lseek_r              0x25c8           0x24          36   
.text.__ascii_mbtowc        0x25ec           0x24          36   
.text._read_r               0x2610           0x24          36   
.text.__sread               0x2634           0x22          34   
.text.mu_spscq_init         0x2656           0x20          32   
.text._mon_getc             0x2676           0x20          32   
.text.MemoryManagement_     0x2696            0x2           2   
.text.led_task_init         0x2698           0x20          32   
.rodata.__sf_fake_stder     0x26b8           0x20          32   
.rodata.__sf_fake_stdin     0x26d8           0x20          32   
.rodata.__sf_fake_stdou     0x26f8           0x20          32   
.text._sbrk_r               0x2718           0x20          32   
.text._close_r              0x2738           0x20          32   
.text._isatty_r             0x2758           0x20          32   
.text.mu_sched_reschedu     0x2778           0x1c          28   
.text.RTC_Timer32Start      0x2794           0x1c          28   
.text.SERCOM2_USART_Err     0x27b0           0x1c          28   
.text._mon_putc             0x27cc           0x1c          28   
.text.screen_update_tas     0x27e8           0x1c          28   
.text._fputwc_r             0x2804           0x1c          28   
.text.__locale_mb_cur_m     0x2820           0x1c          28   
.text.screen_update_tas     0x283c           0x1a          26   
.text.__ascii_wctomb        0x2856           0x1a          26   
.text.mu_spscq_is_full      0x2870           0x18          24   
.text.PM_StandbyModeEnt     0x2888           0x18          24   
.text.RTC_Timer32Counte     0x28a0           0x18          24   
.text.SUPC_SelectVoltag     0x28b8           0x18          24   
.text.mulib_tasker_star     0x28d0           0x18          24   
.text.mulib_tasker_star     0x28e8           0x18          24   
.text.mu_sched_get_next     0x2900           0x16          22   
.text.mu_sched_task_now     0x2916           0x16          22   
.text.mu_task_init          0x292c           0x16          22   
.text.mu_sched_reset        0x2942           0x14          20   
.text.BusFault_Handler      0x2956            0x2           2   
.text.PM_Initialize         0x2958           0x14          20   
.text.RTC_Timer32Compar     0x296c           0x14          20   
.text.SUPC_Initialize       0x2980           0x14          20   
.text.mulib_tasker_stop     0x2994           0x14          20   
.text.mulib_tasker_stop     0x29a8           0x14          20   
.text._vfprintf_cdnopsu     0x29bc           0x14          20   
.text.mu_sched_task_fro     0x29d0           0x12          18   
.text.main                  0x29e2           0x12          18   
.text.BSP_Initialize        0x29f4           0x10          16   
.text.EIC_InterruptEnab     0x2a04           0x10          16   
.rodata                     0x2a14           0x10          16  Read-only const 
.text.mulib_tasker_step     0x2a24           0x10          16   
.text.mulib_tasker_set_     0x2a34           0x10          16   
.text.puts                  0x2a44           0x10          16   
.text.memset                0x2a54           0x10          16   
.text.mu_time_follows       0x2a64            0xe          14   
.text.UsageFault_Handle     0x2a72            0x2           2   
.text.NVMCTRL_Initializ     0x2a74            0xc          12   
.text.RTC_Timer32Interr     0x2a80            0xc          12   
.text.RTC_Timer32Callba     0x2a8c            0xc          12   
.text.SERCOM2_USART_Rea     0x2a98            0xc          12   
.text.button_task_fn        0x2aa4            0xc          12   
.text.button_cb             0x2ab0            0xc          12   
.rodata                     0x2abc           0x18          24  Read-only const 
.text.kbd_cb                0x2ad4            0xc          12   
.text.mulib_tasker_is_l     0x2ae0            0xc          12   
.text._cleanup_r            0x2aec            0xc          12   
.text.fstat                 0x2af8            0xc          12   
.rodata                     0x2b04            0xb          11  Read-only const 
.text.mu_spscq_reset        0x2b10            0xa          10   
.text.mu_sched_get_curr     0x2b1a            0x8           8   
.text.__malloc_lock         0x2b22            0x2           2   
.rodata                     0x2b24            0x8           8  Read-only const 
.text.mu_time_offset        0x2b2c            0x8           8   
.text.mu_time_differenc     0x2b34            0x8           8   
.text.mu_time_precedes      0x2b3c            0x8           8   
.text.mu_time_now           0x2b44            0x8           8   
.text.mu_port_rtc_now       0x2b4c            0x8           8   
.text.__sclose              0x2b54            0x8           8   
.text.close                 0x2b5c            0x8           8   
.text.RTC_Timer32Freque     0x2b64            0x6           6   
.text.mu_port_time_prec     0x2b6a            0x6           6   
.text.mu_task_name          0x2b70            0x4           4   
.text.mu_task_call_coun     0x2b74            0x4           4   
.text.rtc_callback          0x2b78            0x4           4   
.rodata                     0x2b7c            0x4           4  Read-only const 
.text.mu_port_time_offs     0x2b80            0x4           4   
.text.mu_port_time_diff     0x2b84            0x4           4   
.rodata._global_impure_     0x2b88            0x4           4   
.text._close                0x2b8c            0x4           4   
.text._fstat                0x2b90            0x4           4   
.text._isatty               0x2b94            0x4           4   
.text._lseek                0x2b98            0x4           4   
.text._read                 0x2b9c            0x4           4   
.text._write                0x2ba0            0x4           4   
.text.isatty                0x2ba4            0x4           4   
.text.lseek                 0x2ba8            0x4           4   
.text.__malloc_unlock       0x2bac            0x2           2   
      Total ROM used  :      0x2bab       11179  1.1% of 0x100000
        --------------------------------------------------------------------------
         Total Program Memory used  :      0x2bab       11179  1.1% of 0x100000
        --------------------------------------------------------------------------


RAM Data-Memory Usage
section                    address  length [bytes]      (dec)  Description
-------                 ----------  -------------------------  -----------
.bss                    0x20000000          0x100         256  Uninitialized data 
.data.__global_locale   0x20000100          0x16c         364   
.bss.s_tasks            0x2000026c           0x90         144   
.data.impure_data       0x200002fc           0x60          96   
.bss.s_event_queue      0x2000035c           0x50          80   
.bss.s_isr_queue_items  0x200003ac           0x20          32   
.bss.s_sched            0x200003cc           0x20          32   
.bss                    0x200003ec           0x1c          28  Uninitialized data 
.bss.s_default_idle_tas 0x20000408           0x18          24   
.bss.s_screen_redraw_ct 0x20000420           0x10          16   
.bss.s_isr_queue        0x20000430            0xc          12   
.bss.s_kbd_ctx          0x2000043c            0xc          12   
.bss.s_button_ctx       0x20000448            0x8           8   
.bss.s_rtc_period       0x20000450            0x4           4   
.bss.s_screen_update_ct 0x20000454            0x4           4   
.data._impure_ptr       0x20000458            0x4           4   
.bss.__malloc_free_list 0x2000045c            0x4           4   
.bss.__malloc_sbrk_star 0x20000460            0x4           4   
.bss                    0x20000464            0x4           4  Uninitialized data 
.bss.s_led_ctx          0x20000468            0x1           1   
.bss.s_is_low_power_mod 0x20000469            0x1           1   
         Total RAM used  :       0x46a        1130  0.4% of 0x40000
        --------------------------------------------------------------------------
            Total Data Memory used  :       0x46a        1130  0.4% of 0x40000
        --------------------------------------------------------------------------


Dynamic Data-Memory Reservation
section                    address  length [bytes]      (dec)  Description
-------                 ----------  -------------------------  -----------
heap                    0x20000470          0x200         512  Reserved for heap 
stack                   0x20000688        0x3f968      260456  Reserved for stack 

        --------------------------------------------------------------------------

Discarded input sections

 .text          0x00000000        0x0 c:/program files/microchip/xc32/v2.40/bin/bin/../../lib/gcc/pic32c/6.2.1/v7e-m/fpv4-sp/hard/crti.o
 .data          0x00000000        0x0 c:/program files/microchip/xc32/v2.40/bin/bin/../../lib/gcc/pic32c/6.2.1/v7e-m/fpv4-sp/hard/crti.o
 .bss           0x00000000        0x0 c:/program files/microchip/xc32/v2.40/bin/bin/../../lib/gcc/pic32c/6.2.1/v7e-m/fpv4-sp/hard/crti.o
 .data          0x00000000        0x4 c:/program files/microchip/xc32/v2.40/bin/bin/../../lib/gcc/pic32c/6.2.1/v7e-m/fpv4-sp/hard/crtbegin.o
 .text          0x00000000        0x0 build/same54_xplained_pro/production/_ext/265365281/mu_bitvec.o
 .data          0x00000000        0x0 build/same54_xplained_pro/production/_ext/265365281/mu_bitvec.o
 .bss           0x00000000        0x0 build/same54_xplained_pro/production/_ext/265365281/mu_bitvec.o
 .text.write_bit_op
                0x00000000       0x2e build/same54_xplained_pro/production/_ext/265365281/mu_bitvec.o
 .text.write_all_op
                0x00000000       0x34 build/same54_xplained_pro/production/_ext/265365281/mu_bitvec.o
 .text.set_bit_op
                0x00000000        0x8 build/same54_xplained_pro/production/_ext/265365281/mu_bitvec.o
 .text.clear_bit_op
                0x00000000        0xa build/same54_xplained_pro/production/_ext/265365281/mu_bitvec.o
 .text.toggle_bit_op
                0x00000000        0x8 build/same54_xplained_pro/production/_ext/265365281/mu_bitvec.o
 .text.mu_bitvec_bits
                0x00000000        0x4 build/same54_xplained_pro/production/_ext/265365281/mu_bitvec.o
 .text.mu_bitvec_length
                0x00000000        0x4 build/same54_xplained_pro/production/_ext/265365281/mu_bitvec.o
 .text.mu_bitvec_byte_count
                0x00000000        0x4 build/same54_xplained_pro/production/_ext/265365281/mu_bitvec.o
 .text.mu_bitvec_read_bit
                0x00000000       0x2c build/same54_xplained_pro/production/_ext/265365281/mu_bitvec.o
 .text.mu_bitvec_set_bit
                0x00000000       0x10 build/same54_xplained_pro/production/_ext/265365281/mu_bitvec.o
 .text.mu_bitvec_clear_bit
                0x00000000       0x10 build/same54_xplained_pro/production/_ext/265365281/mu_bitvec.o
 .text.mu_bitvec_write_bit
                0x00000000       0x10 build/same54_xplained_pro/production/_ext/265365281/mu_bitvec.o
 .text.mu_bitvec_toggle_bit
                0x00000000       0x10 build/same54_xplained_pro/production/_ext/265365281/mu_bitvec.o
 .text.mu_bitvec_set_all
                0x00000000       0x10 build/same54_xplained_pro/production/_ext/265365281/mu_bitvec.o
 .text.mu_bitvec_clear_all
                0x00000000       0x10 build/same54_xplained_pro/production/_ext/265365281/mu_bitvec.o
 .text.mu_bitvec_init
                0x00000000        0xe build/same54_xplained_pro/production/_ext/265365281/mu_bitvec.o
 .text.mu_bitvec_toggle_all
                0x00000000       0x10 build/same54_xplained_pro/production/_ext/265365281/mu_bitvec.o
 .text.mu_bitvec_copy
                0x00000000       0x30 build/same54_xplained_pro/production/_ext/265365281/mu_bitvec.o
 .text.mu_bitvec_and
                0x00000000       0x42 build/same54_xplained_pro/production/_ext/265365281/mu_bitvec.o
 .text.mu_bitvec_or
                0x00000000       0x42 build/same54_xplained_pro/production/_ext/265365281/mu_bitvec.o
 .text.mu_bitvec_xor
                0x00000000       0x42 build/same54_xplained_pro/production/_ext/265365281/mu_bitvec.o
 .text.mu_bitvec_equals
                0x00000000       0x44 build/same54_xplained_pro/production/_ext/265365281/mu_bitvec.o
 .text.mu_bitvec_is_all_ones
                0x00000000       0x24 build/same54_xplained_pro/production/_ext/265365281/mu_bitvec.o
 .text.mu_bitvec_is_all_zeros
                0x00000000       0x26 build/same54_xplained_pro/production/_ext/265365281/mu_bitvec.o
 .text.mu_bitvec_count_ones
                0x00000000       0x2a build/same54_xplained_pro/production/_ext/265365281/mu_bitvec.o
 .text.mu_bitvec_count_zeros
                0x00000000       0x2a build/same54_xplained_pro/production/_ext/265365281/mu_bitvec.o
 .debug_info    0x00000000     0x1b3a build/same54_xplained_pro/production/_ext/265365281/mu_bitvec.o
 .debug_abbrev  0x00000000      0x305 build/same54_xplained_pro/production/_ext/265365281/mu_bitvec.o
 .debug_loc     0x00000000      0xce6 build/same54_xplained_pro/production/_ext/265365281/mu_bitvec.o
 .debug_aranges
                0x00000000       0xe8 build/same54_xplained_pro/production/_ext/265365281/mu_bitvec.o
 .debug_ranges  0x00000000      0x118 build/same54_xplained_pro/production/_ext/265365281/mu_bitvec.o
 .debug_line    0x00000000      0x3cd build/same54_xplained_pro/production/_ext/265365281/mu_bitvec.o
 .debug_str     0x00000000       0x2f build/same54_xplained_pro/production/_ext/265365281/mu_bitvec.o
 .comment       0x00000000       0x3d build/same54_xplained_pro/production/_ext/265365281/mu_bitvec.o
 .debug_frame   0x00000000      0x294 build/same54_xplained_pro/production/_ext/265365281/mu_bitvec.o
 .ARM.attributes
                0x00000000       0x39 build/same54_xplained_pro/production/_ext/265365281/mu_bitvec.o
 .text          0x00000000        0x0 build/same54_xplained_pro/production/_ext/265365281/mu_list.o
 .data          0x00000000        0x0 build/same54_xplained_pro/production/_ext/265365281/mu_list.o
 .bss           0x00000000        0x0 build/same54_xplained_pro/production/_ext/265365281/mu_list.o
 .text.list_length_aux
                0x00000000        0xa build/same54_xplained_pro/production/_ext/265365281/mu_list.o
 .text.list_contains_aux
                0x00000000        0xc build/same54_xplained_pro/production/_ext/265365281/mu_list.o
 .text.mu_list_push
                0x00000000        0xa build/same54_xplained_pro/production/_ext/265365281/mu_list.o
 .text.mu_list_pop
                0x00000000       0x14 build/same54_xplained_pro/production/_ext/265365281/mu_list.o
 .text.list_delete_aux
                0x00000000       0x12 build/same54_xplained_pro/production/_ext/265365281/mu_list.o
 .text.mu_list_traverse
                0x00000000       0x2a build/same54_xplained_pro/production/_ext/265365281/mu_list.o
 .text.mu_list_length
                0x00000000       0x20 build/same54_xplained_pro/production/_ext/265365281/mu_list.o
 .text.mu_list_contains
                0x00000000       0x18 build/same54_xplained_pro/production/_ext/265365281/mu_list.o
 .text.mu_list_delete
                0x00000000       0x10 build/same54_xplained_pro/production/_ext/265365281/mu_list.o
 .text.mu_list_reverse
                0x00000000       0x22 build/same54_xplained_pro/production/_ext/265365281/mu_list.o
 .debug_info    0x00000000      0x678 build/same54_xplained_pro/production/_ext/265365281/mu_list.o
 .debug_abbrev  0x00000000      0x19b build/same54_xplained_pro/production/_ext/265365281/mu_list.o
 .debug_loc     0x00000000      0x404 build/same54_xplained_pro/production/_ext/265365281/mu_list.o
 .debug_aranges
                0x00000000       0x68 build/same54_xplained_pro/production/_ext/265365281/mu_list.o
 .debug_ranges  0x00000000       0x58 build/same54_xplained_pro/production/_ext/265365281/mu_list.o
 .debug_line    0x00000000      0x127 build/same54_xplained_pro/production/_ext/265365281/mu_list.o
 .debug_str     0x00000000        0x0 build/same54_xplained_pro/production/_ext/265365281/mu_list.o
 .comment       0x00000000       0x3d build/same54_xplained_pro/production/_ext/265365281/mu_list.o
 .debug_frame   0x00000000      0x100 build/same54_xplained_pro/production/_ext/265365281/mu_list.o
 .ARM.attributes
                0x00000000       0x39 build/same54_xplained_pro/production/_ext/265365281/mu_list.o
 .text          0x00000000        0x0 build/same54_xplained_pro/production/_ext/265365281/mu_pstore.o
 .data          0x00000000        0x0 build/same54_xplained_pro/production/_ext/265365281/mu_pstore.o
 .bss           0x00000000        0x0 build/same54_xplained_pro/production/_ext/265365281/mu_pstore.o
 .text.sift_down
                0x00000000       0x60 build/same54_xplained_pro/production/_ext/265365281/mu_pstore.o
 .text.delete_at
                0x00000000       0x22 build/same54_xplained_pro/production/_ext/265365281/mu_pstore.o
 .text.mu_pstore_init
                0x00000000        0xa build/same54_xplained_pro/production/_ext/265365281/mu_pstore.o
 .text.mu_pstore_reset
                0x00000000        0x6 build/same54_xplained_pro/production/_ext/265365281/mu_pstore.o
 .text.mu_pstore_items
                0x00000000        0x4 build/same54_xplained_pro/production/_ext/265365281/mu_pstore.o
 .text.mu_pstore_capacity
                0x00000000        0x4 build/same54_xplained_pro/production/_ext/265365281/mu_pstore.o
 .text.mu_pstore_count
                0x00000000        0x4 build/same54_xplained_pro/production/_ext/265365281/mu_pstore.o
 .text.mu_pstore_is_empty
                0x00000000        0xa build/same54_xplained_pro/production/_ext/265365281/mu_pstore.o
 .text.mu_pstore_is_full
                0x00000000        0xe build/same54_xplained_pro/production/_ext/265365281/mu_pstore.o
 .text.mu_pstore_index_of
                0x00000000       0x34 build/same54_xplained_pro/production/_ext/265365281/mu_pstore.o
 .text.mu_pstore_contains
                0x00000000        0xe build/same54_xplained_pro/production/_ext/265365281/mu_pstore.o
 .text.mu_pstore_push
                0x00000000       0x20 build/same54_xplained_pro/production/_ext/265365281/mu_pstore.o
 .text.mu_pstore_pop
                0x00000000       0x1a build/same54_xplained_pro/production/_ext/265365281/mu_pstore.o
 .text.mu_pstore_peek
                0x00000000       0x1c build/same54_xplained_pro/production/_ext/265365281/mu_pstore.o
 .text.mu_pstore_insert_at
                0x00000000       0x44 build/same54_xplained_pro/production/_ext/265365281/mu_pstore.o
 .text.mu_pstore_delete_at
                0x00000000       0x32 build/same54_xplained_pro/production/_ext/265365281/mu_pstore.o
 .text.mu_pstore_delete
                0x00000000       0x20 build/same54_xplained_pro/production/_ext/265365281/mu_pstore.o
 .text.mu_pstore_insert_sorted
                0x00000000       0x50 build/same54_xplained_pro/production/_ext/265365281/mu_pstore.o
 .text.mu_pstore_sort
                0x00000000       0x5a build/same54_xplained_pro/production/_ext/265365281/mu_pstore.o
 .debug_info    0x00000000     0x19de build/same54_xplained_pro/production/_ext/265365281/mu_pstore.o
 .debug_abbrev  0x00000000      0x3ac build/same54_xplained_pro/production/_ext/265365281/mu_pstore.o
 .debug_loc     0x00000000      0xc3c build/same54_xplained_pro/production/_ext/265365281/mu_pstore.o
 .debug_aranges
                0x00000000       0xb0 build/same54_xplained_pro/production/_ext/265365281/mu_pstore.o
 .debug_ranges  0x00000000      0x108 build/same54_xplained_pro/production/_ext/265365281/mu_pstore.o
 .debug_line    0x00000000      0x32f build/same54_xplained_pro/production/_ext/265365281/mu_pstore.o
 .debug_str     0x00000000       0x37 build/same54_xplained_pro/production/_ext/265365281/mu_pstore.o
 .comment       0x00000000       0x3d build/same54_xplained_pro/production/_ext/265365281/mu_pstore.o
 .debug_frame   0x00000000      0x1c8 build/same54_xplained_pro/production/_ext/265365281/mu_pstore.o
 .ARM.attributes
                0x00000000       0x39 build/same54_xplained_pro/production/_ext/265365281/mu_pstore.o
 .text          0x00000000        0x0 build/same54_xplained_pro/production/_ext/265365281/mu_queue.o
 .data          0x00000000        0x0 build/same54_xplained_pro/production/_ext/265365281/mu_queue.o
 .bss           0x00000000        0x0 build/same54_xplained_pro/production/_ext/265365281/mu_queue.o
 .text.mu_queue_init
                0x00000000        0x8 build/same54_xplained_pro/production/_ext/265365281/mu_queue.o
 .text.mu_queue_head
                0x00000000        0x4 build/same54_xplained_pro/production/_ext/265365281/mu_queue.o
 .text.mu_queue_tail
                0x00000000        0x4 build/same54_xplained_pro/production/_ext/265365281/mu_queue.o
 .text.mu_queue_add
                0x00000000       0x1c build/same54_xplained_pro/production/_ext/265365281/mu_queue.o
 .text.mu_queue_remove
                0x00000000       0x12 build/same54_xplained_pro/production/_ext/265365281/mu_queue.o
 .text.mu_queue_is_empty
                0x00000000        0xa build/same54_xplained_pro/production/_ext/265365281/mu_queue.o
 .text.mu_queue_contains
                0x00000000        0x8 build/same54_xplained_pro/production/_ext/265365281/mu_queue.o
 .text.mu_queue_length
                0x00000000        0x8 build/same54_xplained_pro/production/_ext/265365281/mu_queue.o
 .debug_info    0x00000000      0x511 build/same54_xplained_pro/production/_ext/265365281/mu_queue.o
 .debug_abbrev  0x00000000       0xee build/same54_xplained_pro/production/_ext/265365281/mu_queue.o
 .debug_loc     0x00000000      0x1b6 build/same54_xplained_pro/production/_ext/265365281/mu_queue.o
 .debug_aranges
                0x00000000       0x58 build/same54_xplained_pro/production/_ext/265365281/mu_queue.o
 .debug_ranges  0x00000000       0x48 build/same54_xplained_pro/production/_ext/265365281/mu_queue.o
 .debug_line    0x00000000       0xfa build/same54_xplained_pro/production/_ext/265365281/mu_queue.o
 .debug_str     0x00000000       0x39 build/same54_xplained_pro/production/_ext/265365281/mu_queue.o
 .comment       0x00000000       0x3d build/same54_xplained_pro/production/_ext/265365281/mu_queue.o
 .debug_frame   0x00000000       0xb4 build/same54_xplained_pro/production/_ext/265365281/mu_queue.o
 .ARM.attributes
                0x00000000       0x39 build/same54_xplained_pro/production/_ext/265365281/mu_queue.o
 .text          0x00000000        0x0 build/same54_xplained_pro/production/_ext/265365281/mu_sched.o
 .data          0x00000000        0x0 build/same54_xplained_pro/production/_ext/265365281/mu_sched.o
 .bss           0x00000000        0x0 build/same54_xplained_pro/production/_ext/265365281/mu_sched.o
 .text.mu_sched_event_queue
                0x00000000        0x4 build/same54_xplained_pro/production/_ext/265365281/mu_sched.o
 .text.mu_sched_isr_queue
                0x00000000        0x4 build/same54_xplained_pro/production/_ext/265365281/mu_sched.o
 .text.mu_sched_get_idle_task
                0x00000000        0x4 build/same54_xplained_pro/production/_ext/265365281/mu_sched.o
 .text.mu_sched_get_default_idle_task
                0x00000000        0x8 build/same54_xplained_pro/production/_ext/265365281/mu_sched.o
 .text.mu_sched_get_clock_source
                0x00000000        0x4 build/same54_xplained_pro/production/_ext/265365281/mu_sched.o
 .text.mu_sched_set_clock_source
                0x00000000        0x4 build/same54_xplained_pro/production/_ext/265365281/mu_sched.o
 .text.mu_sched_is_empty
                0x00000000        0xa build/same54_xplained_pro/production/_ext/265365281/mu_sched.o
 .text.mu_sched_event_count
                0x00000000        0x4 build/same54_xplained_pro/production/_ext/265365281/mu_sched.o
 .text.mu_sched_get_current_event
                0x00000000        0xc build/same54_xplained_pro/production/_ext/265365281/mu_sched.o
 .text.mu_sched_event_get_task
                0x00000000        0x4 build/same54_xplained_pro/production/_ext/265365281/mu_sched.o
 .text.mu_sched_event_get_time
                0x00000000        0x4 build/same54_xplained_pro/production/_ext/265365281/mu_sched.o
 .text.mu_sched_task_at
                0x00000000        0x8 build/same54_xplained_pro/production/_ext/265365281/mu_sched.o
 .text.mu_sched_task_in
                0x00000000       0x1e build/same54_xplained_pro/production/_ext/265365281/mu_sched.o
 .text          0x00000000        0x0 build/same54_xplained_pro/production/_ext/265365281/mu_spscq.o
 .data          0x00000000        0x0 build/same54_xplained_pro/production/_ext/265365281/mu_spscq.o
 .bss           0x00000000        0x0 build/same54_xplained_pro/production/_ext/265365281/mu_spscq.o
 .text.mu_spscq_capacity
                0x00000000        0x4 build/same54_xplained_pro/production/_ext/265365281/mu_spscq.o
 .text.mu_spscq_count
                0x00000000       0x10 build/same54_xplained_pro/production/_ext/265365281/mu_spscq.o
 .text.mu_spscq_is_empty
                0x00000000       0x12 build/same54_xplained_pro/production/_ext/265365281/mu_spscq.o
 .text          0x00000000        0x0 build/same54_xplained_pro/production/_ext/265365281/mu_str.o
 .data          0x00000000        0x0 build/same54_xplained_pro/production/_ext/265365281/mu_str.o
 .bss           0x00000000        0x0 build/same54_xplained_pro/production/_ext/265365281/mu_str.o
 .text.mu_str_init
                0x00000000        0x6 build/same54_xplained_pro/production/_ext/265365281/mu_str.o
 .text.mu_str_init_from_cstr
                0x00000000       0x12 build/same54_xplained_pro/production/_ext/265365281/mu_str.o
 .text.mu_str_to_cstr
                0x00000000       0x1a build/same54_xplained_pro/production/_ext/265365281/mu_str.o
 .text.mu_str_capacity
                0x00000000        0x4 build/same54_xplained_pro/production/_ext/265365281/mu_str.o
 .text.mu_str_data
                0x00000000        0x4 build/same54_xplained_pro/production/_ext/265365281/mu_str.o
 .text.mu_str_ref
                0x00000000       0x18 build/same54_xplained_pro/production/_ext/265365281/mu_str.o
 .text.mu_str_get
                0x00000000       0x18 build/same54_xplained_pro/production/_ext/265365281/mu_str.o
 .text.mu_str_put
                0x00000000       0x10 build/same54_xplained_pro/production/_ext/265365281/mu_str.o
 .debug_info    0x00000000     0x111e build/same54_xplained_pro/production/_ext/265365281/mu_str.o
 .debug_abbrev  0x00000000      0x20a build/same54_xplained_pro/production/_ext/265365281/mu_str.o
 .debug_loc     0x00000000      0x1eb build/same54_xplained_pro/production/_ext/265365281/mu_str.o
 .debug_aranges
                0x00000000       0x58 build/same54_xplained_pro/production/_ext/265365281/mu_str.o
 .debug_ranges  0x00000000       0x48 build/same54_xplained_pro/production/_ext/265365281/mu_str.o
 .debug_line    0x00000000      0x1de build/same54_xplained_pro/production/_ext/265365281/mu_str.o
 .debug_str     0x00000000       0x17 build/same54_xplained_pro/production/_ext/265365281/mu_str.o
 .comment       0x00000000       0x3d build/same54_xplained_pro/production/_ext/265365281/mu_str.o
 .debug_frame   0x00000000       0xa4 build/same54_xplained_pro/production/_ext/265365281/mu_str.o
 .ARM.attributes
                0x00000000       0x39 build/same54_xplained_pro/production/_ext/265365281/mu_str.o
 .text          0x00000000        0x0 build/same54_xplained_pro/production/_ext/265365281/mu_substr.o
 .data          0x00000000        0x0 build/same54_xplained_pro/production/_ext/265365281/mu_substr.o
 .bss           0x00000000        0x0 build/same54_xplained_pro/production/_ext/265365281/mu_substr.o
 .text.mu_substr_duplicate
                0x00000000       0x18 build/same54_xplained_pro/production/_ext/265365281/mu_substr.o
 .text.mu_substr_reset
                0x00000000       0x14 build/same54_xplained_pro/production/_ext/265365281/mu_substr.o
 .text.mu_substr_init
                0x00000000        0xa build/same54_xplained_pro/production/_ext/265365281/mu_substr.o
 .text.mu_substr_clear
                0x00000000        0x8 build/same54_xplained_pro/production/_ext/265365281/mu_substr.o
 .text.mu_substr_str
                0x00000000        0x4 build/same54_xplained_pro/production/_ext/265365281/mu_substr.o
 .text.mu_substr_start
                0x00000000        0x4 build/same54_xplained_pro/production/_ext/265365281/mu_substr.o
 .text.mu_substr_end
                0x00000000        0x4 build/same54_xplained_pro/production/_ext/265365281/mu_substr.o
 .text.mu_substr_length
                0x00000000        0x8 build/same54_xplained_pro/production/_ext/265365281/mu_substr.o
 .text.mu_substr_remaining
                0x00000000       0x10 build/same54_xplained_pro/production/_ext/265365281/mu_substr.o
 .text.mu_substr_ref
                0x00000000       0x20 build/same54_xplained_pro/production/_ext/265365281/mu_substr.o
 .text.mu_substr_get
                0x00000000       0x20 build/same54_xplained_pro/production/_ext/265365281/mu_substr.o
 .text.mu_substr_put
                0x00000000       0x1e build/same54_xplained_pro/production/_ext/265365281/mu_substr.o
 .text.mu_substr_slice_str
                0x00000000       0x5a build/same54_xplained_pro/production/_ext/265365281/mu_substr.o
 .text.mu_substr_copy
                0x00000000       0x36 build/same54_xplained_pro/production/_ext/265365281/mu_substr.o
 .text.mu_substr_cmp
                0x00000000       0x58 build/same54_xplained_pro/production/_ext/265365281/mu_substr.o
 .text.mu_substr_equals
                0x00000000        0xe build/same54_xplained_pro/production/_ext/265365281/mu_substr.o
 .text.mu_substr_append
                0x00000000       0x3a build/same54_xplained_pro/production/_ext/265365281/mu_substr.o
 .text.mu_substr_strstr
                0x00000000       0x60 build/same54_xplained_pro/production/_ext/265365281/mu_substr.o
 .text.mu_substr_to_cstr
                0x00000000       0x2a build/same54_xplained_pro/production/_ext/265365281/mu_substr.o
 .debug_info    0x00000000     0x1a8d build/same54_xplained_pro/production/_ext/265365281/mu_substr.o
 .debug_abbrev  0x00000000      0x359 build/same54_xplained_pro/production/_ext/265365281/mu_substr.o
 .debug_loc     0x00000000      0xa44 build/same54_xplained_pro/production/_ext/265365281/mu_substr.o
 .debug_aranges
                0x00000000       0xb0 build/same54_xplained_pro/production/_ext/265365281/mu_substr.o
 .debug_ranges  0x00000000       0xb8 build/same54_xplained_pro/production/_ext/265365281/mu_substr.o
 .debug_line    0x00000000      0x375 build/same54_xplained_pro/production/_ext/265365281/mu_substr.o
 .debug_str     0x00000000       0x35 build/same54_xplained_pro/production/_ext/265365281/mu_substr.o
 .comment       0x00000000       0x3d build/same54_xplained_pro/production/_ext/265365281/mu_substr.o
 .debug_frame   0x00000000      0x1c0 build/same54_xplained_pro/production/_ext/265365281/mu_substr.o
 .ARM.attributes
                0x00000000       0x39 build/same54_xplained_pro/production/_ext/265365281/mu_substr.o
 .text          0x00000000        0x0 build/same54_xplained_pro/production/_ext/265365281/mu_task.o
 .data          0x00000000        0x0 build/same54_xplained_pro/production/_ext/265365281/mu_task.o
 .bss           0x00000000        0x0 build/same54_xplained_pro/production/_ext/265365281/mu_task.o
 .text.mu_task_runtime_ms
                0x00000000        0xa build/same54_xplained_pro/production/_ext/265365281/mu_task.o
 .text.mu_task_max_duration_ms
                0x00000000        0xa build/same54_xplained_pro/production/_ext/265365281/mu_task.o
 .text          0x00000000        0x0 build/same54_xplained_pro/production/_ext/265365281/mu_time.o
 .data          0x00000000        0x0 build/same54_xplained_pro/production/_ext/265365281/mu_time.o
 .bss           0x00000000        0x0 build/same54_xplained_pro/production/_ext/265365281/mu_time.o
 .text.mu_time_init
                0x00000000        0x2 build/same54_xplained_pro/production/_ext/265365281/mu_time.o
 .text.mu_time_is_equal
                0x00000000        0x8 build/same54_xplained_pro/production/_ext/265365281/mu_time.o
 .text.mu_time_duration_to_ms
                0x00000000        0x8 build/same54_xplained_pro/production/_ext/265365281/mu_time.o
 .text.mu_time_ms_to_duration
                0x00000000        0x8 build/same54_xplained_pro/production/_ext/265365281/mu_time.o
 .text          0x00000000        0x0 build/same54_xplained_pro/production/_ext/265365281/mu_version.o
 .data          0x00000000        0x0 build/same54_xplained_pro/production/_ext/265365281/mu_version.o
 .bss           0x00000000        0x0 build/same54_xplained_pro/production/_ext/265365281/mu_version.o
 .text.mu_version
                0x00000000        0x8 build/same54_xplained_pro/production/_ext/265365281/mu_version.o
 .rodata        0x00000000        0x8 build/same54_xplained_pro/production/_ext/265365281/mu_version.o
 .debug_info    0x00000000      0x229 build/same54_xplained_pro/production/_ext/265365281/mu_version.o
 .debug_abbrev  0x00000000       0x49 build/same54_xplained_pro/production/_ext/265365281/mu_version.o
 .debug_aranges
                0x00000000       0x20 build/same54_xplained_pro/production/_ext/265365281/mu_version.o
 .debug_ranges  0x00000000       0x10 build/same54_xplained_pro/production/_ext/265365281/mu_version.o
 .debug_line    0x00000000       0x60 build/same54_xplained_pro/production/_ext/265365281/mu_version.o
 .debug_str     0x00000000        0x0 build/same54_xplained_pro/production/_ext/265365281/mu_version.o
 .comment       0x00000000       0x3d build/same54_xplained_pro/production/_ext/265365281/mu_version.o
 .debug_frame   0x00000000       0x20 build/same54_xplained_pro/production/_ext/265365281/mu_version.o
 .ARM.attributes
                0x00000000       0x39 build/same54_xplained_pro/production/_ext/265365281/mu_version.o
 .text          0x00000000        0x0 build/same54_xplained_pro/production/_ext/465512950/bsp.o
 .data          0x00000000        0x0 build/same54_xplained_pro/production/_ext/465512950/bsp.o
 .bss           0x00000000        0x0 build/same54_xplained_pro/production/_ext/465512950/bsp.o
 .text          0x00000000        0x0 build/same54_xplained_pro/production/_ext/199192420/plib_clock.o
 .data          0x00000000        0x0 build/same54_xplained_pro/production/_ext/199192420/plib_clock.o
 .bss           0x00000000        0x0 build/same54_xplained_pro/production/_ext/199192420/plib_clock.o
 .text          0x00000000        0x0 build/same54_xplained_pro/production/_ext/560615476/plib_cmcc.o
 .data          0x00000000        0x0 build/same54_xplained_pro/production/_ext/560615476/plib_cmcc.o
 .bss           0x00000000        0x0 build/same54_xplained_pro/production/_ext/560615476/plib_cmcc.o
 .text.CMCC_Disable
                0x00000000       0x18 build/same54_xplained_pro/production/_ext/560615476/plib_cmcc.o
 .text.CMCC_EnableICache
                0x00000000       0x28 build/same54_xplained_pro/production/_ext/560615476/plib_cmcc.o
 .text.CMCC_DisableICache
                0x00000000       0x28 build/same54_xplained_pro/production/_ext/560615476/plib_cmcc.o
 .text.CMCC_EnableDCache
                0x00000000       0x28 build/same54_xplained_pro/production/_ext/560615476/plib_cmcc.o
 .text.CMCC_DisableDCache
                0x00000000       0x28 build/same54_xplained_pro/production/_ext/560615476/plib_cmcc.o
 .text.CMCC_InvalidateAll
                0x00000000       0x20 build/same54_xplained_pro/production/_ext/560615476/plib_cmcc.o
 .debug_info    0x00000000      0x5be build/same54_xplained_pro/production/_ext/560615476/plib_cmcc.o
 .debug_abbrev  0x00000000       0x93 build/same54_xplained_pro/production/_ext/560615476/plib_cmcc.o
 .debug_aranges
                0x00000000       0x48 build/same54_xplained_pro/production/_ext/560615476/plib_cmcc.o
 .debug_ranges  0x00000000       0x38 build/same54_xplained_pro/production/_ext/560615476/plib_cmcc.o
 .debug_line    0x00000000      0x1cf build/same54_xplained_pro/production/_ext/560615476/plib_cmcc.o
 .debug_str     0x00000000        0x0 build/same54_xplained_pro/production/_ext/560615476/plib_cmcc.o
 .comment       0x00000000       0x3d build/same54_xplained_pro/production/_ext/560615476/plib_cmcc.o
 .debug_frame   0x00000000       0x70 build/same54_xplained_pro/production/_ext/560615476/plib_cmcc.o
 .ARM.attributes
                0x00000000       0x39 build/same54_xplained_pro/production/_ext/560615476/plib_cmcc.o
 .text          0x00000000        0x0 build/same54_xplained_pro/production/_ext/18086165/plib_eic.o
 .data          0x00000000        0x0 build/same54_xplained_pro/production/_ext/18086165/plib_eic.o
 .bss           0x00000000        0x0 build/same54_xplained_pro/production/_ext/18086165/plib_eic.o
 .text.EIC_InterruptDisable
                0x00000000       0x10 build/same54_xplained_pro/production/_ext/18086165/plib_eic.o
 .text          0x00000000        0x0 build/same54_xplained_pro/production/_ext/201341906/plib_evsys.o
 .data          0x00000000        0x0 build/same54_xplained_pro/production/_ext/201341906/plib_evsys.o
 .bss           0x00000000        0x0 build/same54_xplained_pro/production/_ext/201341906/plib_evsys.o
 .text          0x00000000        0x0 build/same54_xplained_pro/production/_ext/560952012/plib_nvic.o
 .data          0x00000000        0x0 build/same54_xplained_pro/production/_ext/560952012/plib_nvic.o
 .bss           0x00000000        0x0 build/same54_xplained_pro/production/_ext/560952012/plib_nvic.o
 .text          0x00000000        0x0 build/same54_xplained_pro/production/_ext/392550042/plib_nvmctrl.o
 .data          0x00000000        0x0 build/same54_xplained_pro/production/_ext/392550042/plib_nvmctrl.o
 .bss           0x00000000        0x0 build/same54_xplained_pro/production/_ext/392550042/plib_nvmctrl.o
 .text.NVMCTRL_Read
                0x00000000       0x10 build/same54_xplained_pro/production/_ext/392550042/plib_nvmctrl.o
 .text.NVMCTRL_SetWriteMode
                0x00000000       0x14 build/same54_xplained_pro/production/_ext/392550042/plib_nvmctrl.o
 .text.NVMCTRL_QuadWordWrite
                0x00000000       0x4c build/same54_xplained_pro/production/_ext/392550042/plib_nvmctrl.o
 .text.NVMCTRL_DoubleWordWrite
                0x00000000       0x40 build/same54_xplained_pro/production/_ext/392550042/plib_nvmctrl.o
 .text.NVMCTRL_PageWrite
                0x00000000       0x38 build/same54_xplained_pro/production/_ext/392550042/plib_nvmctrl.o
 .text.NVMCTRL_BlockErase
                0x00000000       0x1c build/same54_xplained_pro/production/_ext/392550042/plib_nvmctrl.o
 .text.NVMCTRL_ErrorGet
                0x00000000       0x24 build/same54_xplained_pro/production/_ext/392550042/plib_nvmctrl.o
 .text.NVMCTRL_StatusGet
                0x00000000        0xc build/same54_xplained_pro/production/_ext/392550042/plib_nvmctrl.o
 .text.NVMCTRL_IsBusy
                0x00000000       0x10 build/same54_xplained_pro/production/_ext/392550042/plib_nvmctrl.o
 .text.NVMCTRL_RegionLock
                0x00000000       0x10 build/same54_xplained_pro/production/_ext/392550042/plib_nvmctrl.o
 .text.NVMCTRL_RegionUnlock
                0x00000000       0x10 build/same54_xplained_pro/production/_ext/392550042/plib_nvmctrl.o
 .text.NVMCTRL_RegionLockStatusGet
                0x00000000        0xc build/same54_xplained_pro/production/_ext/392550042/plib_nvmctrl.o
 .text.NVMCTRL_SmartEEPROM_IsBusy
                0x00000000       0x10 build/same54_xplained_pro/production/_ext/392550042/plib_nvmctrl.o
 .text.NVMCTRL_SmartEEPROMStatusGet
                0x00000000        0xc build/same54_xplained_pro/production/_ext/392550042/plib_nvmctrl.o
 .text.NVMCTRL_SmartEEPROM_IsActiveSectorFull
                0x00000000       0x10 build/same54_xplained_pro/production/_ext/392550042/plib_nvmctrl.o
 .text.NVMCTRL_BankSwap
                0x00000000       0x10 build/same54_xplained_pro/production/_ext/392550042/plib_nvmctrl.o
 .text.NVMCTRL_SmartEEPROMSectorReallocate
                0x00000000       0x10 build/same54_xplained_pro/production/_ext/392550042/plib_nvmctrl.o
 .text.NVMCTRL_SmartEEPROMFlushPageBuffer
                0x00000000       0x18 build/same54_xplained_pro/production/_ext/392550042/plib_nvmctrl.o
 .bss.nvm_error
                0x00000000        0x2 build/same54_xplained_pro/production/_ext/392550042/plib_nvmctrl.o
 .text          0x00000000        0x0 build/same54_xplained_pro/production/_ext/554773095/plib_pm.o
 .data          0x00000000        0x0 build/same54_xplained_pro/production/_ext/554773095/plib_pm.o
 .bss           0x00000000        0x0 build/same54_xplained_pro/production/_ext/554773095/plib_pm.o
 .text.PM_IdleModeEnter
                0x00000000       0x10 build/same54_xplained_pro/production/_ext/554773095/plib_pm.o
 .text.PM_HibernateModeEnter
                0x00000000       0x18 build/same54_xplained_pro/production/_ext/554773095/plib_pm.o
 .text.PM_BackupModeEnter
                0x00000000       0x18 build/same54_xplained_pro/production/_ext/554773095/plib_pm.o
 .text.PM_OffModeEnter
                0x00000000       0x10 build/same54_xplained_pro/production/_ext/554773095/plib_pm.o
 .text.PM_IO_RetentionSet
                0x00000000       0x10 build/same54_xplained_pro/production/_ext/554773095/plib_pm.o
 .text.PM_IO_RetentionClear
                0x00000000       0x10 build/same54_xplained_pro/production/_ext/554773095/plib_pm.o
 .text          0x00000000        0x0 build/same54_xplained_pro/production/_ext/561005163/plib_port.o
 .data          0x00000000        0x0 build/same54_xplained_pro/production/_ext/561005163/plib_port.o
 .bss           0x00000000        0x0 build/same54_xplained_pro/production/_ext/561005163/plib_port.o
 .text.PORT_GroupRead
                0x00000000        0x4 build/same54_xplained_pro/production/_ext/561005163/plib_port.o
 .text.PORT_GroupWrite
                0x00000000        0xc build/same54_xplained_pro/production/_ext/561005163/plib_port.o
 .text.PORT_GroupLatchRead
                0x00000000        0x4 build/same54_xplained_pro/production/_ext/561005163/plib_port.o
 .text.PORT_GroupSet
                0x00000000        0x4 build/same54_xplained_pro/production/_ext/561005163/plib_port.o
 .text.PORT_GroupClear
                0x00000000        0x4 build/same54_xplained_pro/production/_ext/561005163/plib_port.o
 .text.PORT_GroupToggle
                0x00000000        0x4 build/same54_xplained_pro/production/_ext/561005163/plib_port.o
 .text.PORT_GroupInputEnable
                0x00000000        0x4 build/same54_xplained_pro/production/_ext/561005163/plib_port.o
 .text.PORT_GroupOutputEnable
                0x00000000        0x4 build/same54_xplained_pro/production/_ext/561005163/plib_port.o
 .text          0x00000000        0x0 build/same54_xplained_pro/production/_ext/18098999/plib_rtc_timer.o
 .data          0x00000000        0x0 build/same54_xplained_pro/production/_ext/18098999/plib_rtc_timer.o
 .bss           0x00000000        0x0 build/same54_xplained_pro/production/_ext/18098999/plib_rtc_timer.o
 .text.RTC_Timer32Stop
                0x00000000       0x1c build/same54_xplained_pro/production/_ext/18098999/plib_rtc_timer.o
 .text.RTC_Timer32CounterSet
                0x00000000       0x14 build/same54_xplained_pro/production/_ext/18098999/plib_rtc_timer.o
 .text.RTC_Timer32Compare1Set
                0x00000000       0x14 build/same54_xplained_pro/production/_ext/18098999/plib_rtc_timer.o
 .text.RTC_Timer32PeriodGet
                0x00000000        0x6 build/same54_xplained_pro/production/_ext/18098999/plib_rtc_timer.o
 .text.RTC_Timer32InterruptDisable
                0x00000000        0xc build/same54_xplained_pro/production/_ext/18098999/plib_rtc_timer.o
 .text.RTC_BackupRegisterSet
                0x00000000       0x10 build/same54_xplained_pro/production/_ext/18098999/plib_rtc_timer.o
 .text.RTC_BackupRegisterGet
                0x00000000       0x10 build/same54_xplained_pro/production/_ext/18098999/plib_rtc_timer.o
 .text.RTC_TamperSourceGet
                0x00000000        0xc build/same54_xplained_pro/production/_ext/18098999/plib_rtc_timer.o
 .text.RTC_Timer32TimeStampGet
                0x00000000        0xc build/same54_xplained_pro/production/_ext/18098999/plib_rtc_timer.o
 .text          0x00000000        0x0 build/same54_xplained_pro/production/_ext/1547227007/plib_sercom2_usart.o
 .data          0x00000000        0x0 build/same54_xplained_pro/production/_ext/1547227007/plib_sercom2_usart.o
 .bss           0x00000000        0x0 build/same54_xplained_pro/production/_ext/1547227007/plib_sercom2_usart.o
 .text.SERCOM2_USART_FrequencyGet
                0x00000000        0x8 build/same54_xplained_pro/production/_ext/1547227007/plib_sercom2_usart.o
 .text.SERCOM2_USART_SerialSetup
                0x00000000      0x13c build/same54_xplained_pro/production/_ext/1547227007/plib_sercom2_usart.o
 .text.SERCOM2_USART_WriteIsBusy
                0x00000000        0xc build/same54_xplained_pro/production/_ext/1547227007/plib_sercom2_usart.o
 .text.SERCOM2_USART_WriteCountGet
                0x00000000        0xc build/same54_xplained_pro/production/_ext/1547227007/plib_sercom2_usart.o
 .text.SERCOM2_USART_WriteCallbackRegister
                0x00000000        0xc build/same54_xplained_pro/production/_ext/1547227007/plib_sercom2_usart.o
 .text.SERCOM2_USART_ReadIsBusy
                0x00000000        0xc build/same54_xplained_pro/production/_ext/1547227007/plib_sercom2_usart.o
 .text.SERCOM2_USART_ReadCountGet
                0x00000000        0xc build/same54_xplained_pro/production/_ext/1547227007/plib_sercom2_usart.o
 .text          0x00000000        0x0 build/same54_xplained_pro/production/_ext/561100223/plib_supc.o
 .data          0x00000000        0x0 build/same54_xplained_pro/production/_ext/561100223/plib_supc.o
 .bss           0x00000000        0x0 build/same54_xplained_pro/production/_ext/561100223/plib_supc.o
 .text.SUPC_SelectTempSenorChannel
                0x00000000       0x14 build/same54_xplained_pro/production/_ext/561100223/plib_supc.o
 .text.SUPC_SetOutputPin
                0x00000000       0x1c build/same54_xplained_pro/production/_ext/561100223/plib_supc.o
 .text.SUPC_ClearOutputPin
                0x00000000       0x1c build/same54_xplained_pro/production/_ext/561100223/plib_supc.o
 .text          0x00000000        0x0 build/same54_xplained_pro/production/_ext/697067648/xc32_monitor.o
 .data          0x00000000        0x0 build/same54_xplained_pro/production/_ext/697067648/xc32_monitor.o
 .bss           0x00000000        0x0 build/same54_xplained_pro/production/_ext/697067648/xc32_monitor.o
 .text          0x00000000        0x0 build/same54_xplained_pro/production/_ext/602300742/initialization.o
 .data          0x00000000        0x0 build/same54_xplained_pro/production/_ext/602300742/initialization.o
 .bss           0x00000000        0x0 build/same54_xplained_pro/production/_ext/602300742/initialization.o
 .text          0x00000000        0x0 build/same54_xplained_pro/production/_ext/602300742/interrupts.o
 .data          0x00000000        0x0 build/same54_xplained_pro/production/_ext/602300742/interrupts.o
 .bss           0x00000000        0x0 build/same54_xplained_pro/production/_ext/602300742/interrupts.o
 .text          0x00000000        0x0 build/same54_xplained_pro/production/_ext/602300742/exceptions.o
 .data          0x00000000        0x0 build/same54_xplained_pro/production/_ext/602300742/exceptions.o
 .bss           0x00000000        0x0 build/same54_xplained_pro/production/_ext/602300742/exceptions.o
 .text          0x00000000        0x0 build/same54_xplained_pro/production/_ext/602300742/startup_xc32.o
 .data          0x00000000        0x0 build/same54_xplained_pro/production/_ext/602300742/startup_xc32.o
 .bss           0x00000000        0x0 build/same54_xplained_pro/production/_ext/602300742/startup_xc32.o
 .text          0x00000000        0x0 build/same54_xplained_pro/production/_ext/602300742/libc_syscalls.o
 .data          0x00000000        0x0 build/same54_xplained_pro/production/_ext/602300742/libc_syscalls.o
 .bss           0x00000000        0x0 build/same54_xplained_pro/production/_ext/602300742/libc_syscalls.o
 .text._exit    0x00000000        0x2 build/same54_xplained_pro/production/_ext/602300742/libc_syscalls.o
 .debug_info    0x00000000      0xeea build/same54_xplained_pro/production/_ext/602300742/libc_syscalls.o
 .debug_abbrev  0x00000000      0x1a8 build/same54_xplained_pro/production/_ext/602300742/libc_syscalls.o
 .debug_aranges
                0x00000000       0x20 build/same54_xplained_pro/production/_ext/602300742/libc_syscalls.o
 .debug_ranges  0x00000000       0x10 build/same54_xplained_pro/production/_ext/602300742/libc_syscalls.o
 .debug_line    0x00000000      0x1db build/same54_xplained_pro/production/_ext/602300742/libc_syscalls.o
 .debug_str     0x00000000        0xe build/same54_xplained_pro/production/_ext/602300742/libc_syscalls.o
 .comment       0x00000000       0x3d build/same54_xplained_pro/production/_ext/602300742/libc_syscalls.o
 .debug_frame   0x00000000       0x20 build/same54_xplained_pro/production/_ext/602300742/libc_syscalls.o
 .ARM.attributes
                0x00000000       0x39 build/same54_xplained_pro/production/_ext/602300742/libc_syscalls.o
 .text          0x00000000        0x0 build/same54_xplained_pro/production/_ext/1483874177/button_task.o
 .data          0x00000000        0x0 build/same54_xplained_pro/production/_ext/1483874177/button_task.o
 .bss           0x00000000        0x0 build/same54_xplained_pro/production/_ext/1483874177/button_task.o
 .text          0x00000000        0x0 build/same54_xplained_pro/production/_ext/1483874177/idle_task.o
 .data          0x00000000        0x0 build/same54_xplained_pro/production/_ext/1483874177/idle_task.o
 .bss           0x00000000        0x0 build/same54_xplained_pro/production/_ext/1483874177/idle_task.o
 .text          0x00000000        0x0 build/same54_xplained_pro/production/_ext/1483874177/kbd_task.o
 .data          0x00000000        0x0 build/same54_xplained_pro/production/_ext/1483874177/kbd_task.o
 .bss           0x00000000        0x0 build/same54_xplained_pro/production/_ext/1483874177/kbd_task.o
 .text          0x00000000        0x0 build/same54_xplained_pro/production/_ext/1483874177/led_task.o
 .data          0x00000000        0x0 build/same54_xplained_pro/production/_ext/1483874177/led_task.o
 .bss           0x00000000        0x0 build/same54_xplained_pro/production/_ext/1483874177/led_task.o
 .text          0x00000000        0x0 build/same54_xplained_pro/production/_ext/1483874177/mu_port.o
 .data          0x00000000        0x0 build/same54_xplained_pro/production/_ext/1483874177/mu_port.o
 .bss           0x00000000        0x0 build/same54_xplained_pro/production/_ext/1483874177/mu_port.o
 .text.mu_port_time_is_equal
                0x00000000        0xa build/same54_xplained_pro/production/_ext/1483874177/mu_port.o
 .text.mu_port_time_follows
                0x00000000        0x6 build/same54_xplained_pro/production/_ext/1483874177/mu_port.o
 .text.mu_port_time_ms_to_duration
                0x00000000       0x34 build/same54_xplained_pro/production/_ext/1483874177/mu_port.o
 .text.mu_port_time_duration_to_ms
                0x00000000       0x2c build/same54_xplained_pro/production/_ext/1483874177/mu_port.o
 .text.mu_port_time_seconds_to_duration
                0x00000000       0x18 build/same54_xplained_pro/production/_ext/1483874177/mu_port.o
 .text.mu_port_time_duration_to_seconds
                0x00000000       0x18 build/same54_xplained_pro/production/_ext/1483874177/mu_port.o
 .text          0x00000000        0x0 build/same54_xplained_pro/production/_ext/1483874177/screen_redraw_task.o
 .data          0x00000000        0x0 build/same54_xplained_pro/production/_ext/1483874177/screen_redraw_task.o
 .bss           0x00000000        0x0 build/same54_xplained_pro/production/_ext/1483874177/screen_redraw_task.o
 .text          0x00000000        0x0 build/same54_xplained_pro/production/_ext/1483874177/screen_update_task.o
 .data          0x00000000        0x0 build/same54_xplained_pro/production/_ext/1483874177/screen_update_task.o
 .bss           0x00000000        0x0 build/same54_xplained_pro/production/_ext/1483874177/screen_update_task.o
 .text          0x00000000        0x0 build/same54_xplained_pro/production/_ext/1483874177/mulib_tasker.o
 .data          0x00000000        0x0 build/same54_xplained_pro/production/_ext/1483874177/mulib_tasker.o
 .bss           0x00000000        0x0 build/same54_xplained_pro/production/_ext/1483874177/mulib_tasker.o
 .text          0x00000000        0x0 build/same54_xplained_pro/production/_ext/1360937237/main.o
 .data          0x00000000        0x0 build/same54_xplained_pro/production/_ext/1360937237/main.o
 .bss           0x00000000        0x0 build/same54_xplained_pro/production/_ext/1360937237/main.o
 .text          0x00000000        0x0 c:/program files/microchip/xc32/v2.40/bin/bin/../../lib/gcc/pic32c/6.2.1/../../../../pic32c/lib/v7e-m/fpv4-sp/hard\libpic32c.a(data_init.o)
 .data          0x00000000        0x0 c:/program files/microchip/xc32/v2.40/bin/bin/../../lib/gcc/pic32c/6.2.1/../../../../pic32c/lib/v7e-m/fpv4-sp/hard\libpic32c.a(data_init.o)
 .bss           0x00000000        0x0 c:/program files/microchip/xc32/v2.40/bin/bin/../../lib/gcc/pic32c/6.2.1/../../../../pic32c/lib/v7e-m/fpv4-sp/hard\libpic32c.a(data_init.o)
 .text          0x00000000      0x370 c:/program files/microchip/xc32/v2.40/bin/bin/../../lib/gcc/pic32c/6.2.1/v7e-m/fpv4-sp/hard\libgcc.a(_arm_addsubdf3.o)
 .data          0x00000000        0x0 c:/program files/microchip/xc32/v2.40/bin/bin/../../lib/gcc/pic32c/6.2.1/v7e-m/fpv4-sp/hard\libgcc.a(_arm_addsubdf3.o)
 .bss           0x00000000        0x0 c:/program files/microchip/xc32/v2.40/bin/bin/../../lib/gcc/pic32c/6.2.1/v7e-m/fpv4-sp/hard\libgcc.a(_arm_addsubdf3.o)
 .debug_line    0x00000000      0x1be c:/program files/microchip/xc32/v2.40/bin/bin/../../lib/gcc/pic32c/6.2.1/v7e-m/fpv4-sp/hard\libgcc.a(_arm_addsubdf3.o)
 .debug_info    0x00000000      0x102 c:/program files/microchip/xc32/v2.40/bin/bin/../../lib/gcc/pic32c/6.2.1/v7e-m/fpv4-sp/hard\libgcc.a(_arm_addsubdf3.o)
 .debug_abbrev  0x00000000       0x14 c:/program files/microchip/xc32/v2.40/bin/bin/../../lib/gcc/pic32c/6.2.1/v7e-m/fpv4-sp/hard\libgcc.a(_arm_addsubdf3.o)
 .debug_aranges
                0x00000000       0x20 c:/program files/microchip/xc32/v2.40/bin/bin/../../lib/gcc/pic32c/6.2.1/v7e-m/fpv4-sp/hard\libgcc.a(_arm_addsubdf3.o)
 .debug_frame   0x00000000       0xac c:/program files/microchip/xc32/v2.40/bin/bin/../../lib/gcc/pic32c/6.2.1/v7e-m/fpv4-sp/hard\libgcc.a(_arm_addsubdf3.o)
 .ARM.attributes
                0x00000000       0x22 c:/program files/microchip/xc32/v2.40/bin/bin/../../lib/gcc/pic32c/6.2.1/v7e-m/fpv4-sp/hard\libgcc.a(_arm_addsubdf3.o)
 .text          0x00000000      0x424 c:/program files/microchip/xc32/v2.40/bin/bin/../../lib/gcc/pic32c/6.2.1/v7e-m/fpv4-sp/hard\libgcc.a(_arm_muldivdf3.o)
 .data          0x00000000        0x0 c:/program files/microchip/xc32/v2.40/bin/bin/../../lib/gcc/pic32c/6.2.1/v7e-m/fpv4-sp/hard\libgcc.a(_arm_muldivdf3.o)
 .bss           0x00000000        0x0 c:/program files/microchip/xc32/v2.40/bin/bin/../../lib/gcc/pic32c/6.2.1/v7e-m/fpv4-sp/hard\libgcc.a(_arm_muldivdf3.o)
 .debug_line    0x00000000      0x1da c:/program files/microchip/xc32/v2.40/bin/bin/../../lib/gcc/pic32c/6.2.1/v7e-m/fpv4-sp/hard\libgcc.a(_arm_muldivdf3.o)
 .debug_info    0x00000000      0x102 c:/program files/microchip/xc32/v2.40/bin/bin/../../lib/gcc/pic32c/6.2.1/v7e-m/fpv4-sp/hard\libgcc.a(_arm_muldivdf3.o)
 .debug_abbrev  0x00000000       0x14 c:/program files/microchip/xc32/v2.40/bin/bin/../../lib/gcc/pic32c/6.2.1/v7e-m/fpv4-sp/hard\libgcc.a(_arm_muldivdf3.o)
 .debug_aranges
                0x00000000       0x20 c:/program files/microchip/xc32/v2.40/bin/bin/../../lib/gcc/pic32c/6.2.1/v7e-m/fpv4-sp/hard\libgcc.a(_arm_muldivdf3.o)
 .debug_frame   0x00000000       0x50 c:/program files/microchip/xc32/v2.40/bin/bin/../../lib/gcc/pic32c/6.2.1/v7e-m/fpv4-sp/hard\libgcc.a(_arm_muldivdf3.o)
 .ARM.attributes
                0x00000000       0x22 c:/program files/microchip/xc32/v2.40/bin/bin/../../lib/gcc/pic32c/6.2.1/v7e-m/fpv4-sp/hard\libgcc.a(_arm_muldivdf3.o)
 .text          0x00000000       0xa0 c:/program files/microchip/xc32/v2.40/bin/bin/../../lib/gcc/pic32c/6.2.1/v7e-m/fpv4-sp/hard\libgcc.a(_arm_truncdfsf2.o)
 .data          0x00000000        0x0 c:/program files/microchip/xc32/v2.40/bin/bin/../../lib/gcc/pic32c/6.2.1/v7e-m/fpv4-sp/hard\libgcc.a(_arm_truncdfsf2.o)
 .bss           0x00000000        0x0 c:/program files/microchip/xc32/v2.40/bin/bin/../../lib/gcc/pic32c/6.2.1/v7e-m/fpv4-sp/hard\libgcc.a(_arm_truncdfsf2.o)
 .debug_line    0x00000000       0xc9 c:/program files/microchip/xc32/v2.40/bin/bin/../../lib/gcc/pic32c/6.2.1/v7e-m/fpv4-sp/hard\libgcc.a(_arm_truncdfsf2.o)
 .debug_info    0x00000000      0x102 c:/program files/microchip/xc32/v2.40/bin/bin/../../lib/gcc/pic32c/6.2.1/v7e-m/fpv4-sp/hard\libgcc.a(_arm_truncdfsf2.o)
 .debug_abbrev  0x00000000       0x14 c:/program files/microchip/xc32/v2.40/bin/bin/../../lib/gcc/pic32c/6.2.1/v7e-m/fpv4-sp/hard\libgcc.a(_arm_truncdfsf2.o)
 .debug_aranges
                0x00000000       0x20 c:/program files/microchip/xc32/v2.40/bin/bin/../../lib/gcc/pic32c/6.2.1/v7e-m/fpv4-sp/hard\libgcc.a(_arm_truncdfsf2.o)
 .debug_frame   0x00000000       0x24 c:/program files/microchip/xc32/v2.40/bin/bin/../../lib/gcc/pic32c/6.2.1/v7e-m/fpv4-sp/hard\libgcc.a(_arm_truncdfsf2.o)
 .ARM.attributes
                0x00000000       0x22 c:/program files/microchip/xc32/v2.40/bin/bin/../../lib/gcc/pic32c/6.2.1/v7e-m/fpv4-sp/hard\libgcc.a(_arm_truncdfsf2.o)
 .text          0x00000000       0x30 c:/program files/microchip/xc32/v2.40/bin/bin/../../lib/gcc/pic32c/6.2.1/v7e-m/fpv4-sp/hard\libgcc.a(_aeabi_uldivmod.o)
 .data          0x00000000        0x0 c:/program files/microchip/xc32/v2.40/bin/bin/../../lib/gcc/pic32c/6.2.1/v7e-m/fpv4-sp/hard\libgcc.a(_aeabi_uldivmod.o)
 .bss           0x00000000        0x0 c:/program files/microchip/xc32/v2.40/bin/bin/../../lib/gcc/pic32c/6.2.1/v7e-m/fpv4-sp/hard\libgcc.a(_aeabi_uldivmod.o)
 .debug_line    0x00000000       0x9c c:/program files/microchip/xc32/v2.40/bin/bin/../../lib/gcc/pic32c/6.2.1/v7e-m/fpv4-sp/hard\libgcc.a(_aeabi_uldivmod.o)
 .debug_info    0x00000000       0xfd c:/program files/microchip/xc32/v2.40/bin/bin/../../lib/gcc/pic32c/6.2.1/v7e-m/fpv4-sp/hard\libgcc.a(_aeabi_uldivmod.o)
 .debug_abbrev  0x00000000       0x14 c:/program files/microchip/xc32/v2.40/bin/bin/../../lib/gcc/pic32c/6.2.1/v7e-m/fpv4-sp/hard\libgcc.a(_aeabi_uldivmod.o)
 .debug_aranges
                0x00000000       0x20 c:/program files/microchip/xc32/v2.40/bin/bin/../../lib/gcc/pic32c/6.2.1/v7e-m/fpv4-sp/hard\libgcc.a(_aeabi_uldivmod.o)
 .debug_frame   0x00000000       0x2c c:/program files/microchip/xc32/v2.40/bin/bin/../../lib/gcc/pic32c/6.2.1/v7e-m/fpv4-sp/hard\libgcc.a(_aeabi_uldivmod.o)
 .ARM.attributes
                0x00000000       0x22 c:/program files/microchip/xc32/v2.40/bin/bin/../../lib/gcc/pic32c/6.2.1/v7e-m/fpv4-sp/hard\libgcc.a(_aeabi_uldivmod.o)
 .text          0x00000000      0x2b8 c:/program files/microchip/xc32/v2.40/bin/bin/../../lib/gcc/pic32c/6.2.1/v7e-m/fpv4-sp/hard\libgcc.a(_udivmoddi4.o)
 .data          0x00000000        0x0 c:/program files/microchip/xc32/v2.40/bin/bin/../../lib/gcc/pic32c/6.2.1/v7e-m/fpv4-sp/hard\libgcc.a(_udivmoddi4.o)
 .bss           0x00000000        0x0 c:/program files/microchip/xc32/v2.40/bin/bin/../../lib/gcc/pic32c/6.2.1/v7e-m/fpv4-sp/hard\libgcc.a(_udivmoddi4.o)
 .ARM.extab     0x00000000        0x0 c:/program files/microchip/xc32/v2.40/bin/bin/../../lib/gcc/pic32c/6.2.1/v7e-m/fpv4-sp/hard\libgcc.a(_udivmoddi4.o)
 .ARM.exidx     0x00000000        0x8 c:/program files/microchip/xc32/v2.40/bin/bin/../../lib/gcc/pic32c/6.2.1/v7e-m/fpv4-sp/hard\libgcc.a(_udivmoddi4.o)
 .debug_info    0x00000000     0x1696 c:/program files/microchip/xc32/v2.40/bin/bin/../../lib/gcc/pic32c/6.2.1/v7e-m/fpv4-sp/hard\libgcc.a(_udivmoddi4.o)
 .debug_abbrev  0x00000000      0x163 c:/program files/microchip/xc32/v2.40/bin/bin/../../lib/gcc/pic32c/6.2.1/v7e-m/fpv4-sp/hard\libgcc.a(_udivmoddi4.o)
 .debug_loc     0x00000000      0xc35 c:/program files/microchip/xc32/v2.40/bin/bin/../../lib/gcc/pic32c/6.2.1/v7e-m/fpv4-sp/hard\libgcc.a(_udivmoddi4.o)
 .debug_aranges
                0x00000000       0x20 c:/program files/microchip/xc32/v2.40/bin/bin/../../lib/gcc/pic32c/6.2.1/v7e-m/fpv4-sp/hard\libgcc.a(_udivmoddi4.o)
 .debug_ranges  0x00000000       0xa8 c:/program files/microchip/xc32/v2.40/bin/bin/../../lib/gcc/pic32c/6.2.1/v7e-m/fpv4-sp/hard\libgcc.a(_udivmoddi4.o)
 .debug_line    0x00000000      0x32c c:/program files/microchip/xc32/v2.40/bin/bin/../../lib/gcc/pic32c/6.2.1/v7e-m/fpv4-sp/hard\libgcc.a(_udivmoddi4.o)
 .debug_str     0x00000000        0x0 c:/program files/microchip/xc32/v2.40/bin/bin/../../lib/gcc/pic32c/6.2.1/v7e-m/fpv4-sp/hard\libgcc.a(_udivmoddi4.o)
 .comment       0x00000000       0x3d c:/program files/microchip/xc32/v2.40/bin/bin/../../lib/gcc/pic32c/6.2.1/v7e-m/fpv4-sp/hard\libgcc.a(_udivmoddi4.o)
 .debug_frame   0x00000000       0x38 c:/program files/microchip/xc32/v2.40/bin/bin/../../lib/gcc/pic32c/6.2.1/v7e-m/fpv4-sp/hard\libgcc.a(_udivmoddi4.o)
 .ARM.attributes
                0x00000000       0x34 c:/program files/microchip/xc32/v2.40/bin/bin/../../lib/gcc/pic32c/6.2.1/v7e-m/fpv4-sp/hard\libgcc.a(_udivmoddi4.o)
 .text          0x00000000        0x4 c:/program files/microchip/xc32/v2.40/bin/bin/../../lib/gcc/pic32c/6.2.1/v7e-m/fpv4-sp/hard\libgcc.a(_dvmd_tls.o)
 .data          0x00000000        0x0 c:/program files/microchip/xc32/v2.40/bin/bin/../../lib/gcc/pic32c/6.2.1/v7e-m/fpv4-sp/hard\libgcc.a(_dvmd_tls.o)
 .bss           0x00000000        0x0 c:/program files/microchip/xc32/v2.40/bin/bin/../../lib/gcc/pic32c/6.2.1/v7e-m/fpv4-sp/hard\libgcc.a(_dvmd_tls.o)
 .debug_line    0x00000000       0x9c c:/program files/microchip/xc32/v2.40/bin/bin/../../lib/gcc/pic32c/6.2.1/v7e-m/fpv4-sp/hard\libgcc.a(_dvmd_tls.o)
 .debug_info    0x00000000      0x101 c:/program files/microchip/xc32/v2.40/bin/bin/../../lib/gcc/pic32c/6.2.1/v7e-m/fpv4-sp/hard\libgcc.a(_dvmd_tls.o)
 .debug_abbrev  0x00000000       0x14 c:/program files/microchip/xc32/v2.40/bin/bin/../../lib/gcc/pic32c/6.2.1/v7e-m/fpv4-sp/hard\libgcc.a(_dvmd_tls.o)
 .debug_aranges
                0x00000000       0x20 c:/program files/microchip/xc32/v2.40/bin/bin/../../lib/gcc/pic32c/6.2.1/v7e-m/fpv4-sp/hard\libgcc.a(_dvmd_tls.o)
 .ARM.attributes
                0x00000000       0x22 c:/program files/microchip/xc32/v2.40/bin/bin/../../lib/gcc/pic32c/6.2.1/v7e-m/fpv4-sp/hard\libgcc.a(_dvmd_tls.o)
 .text          0x00000000        0x0 c:/program files/microchip/xc32/v2.40/bin/bin/../../lib/gcc/pic32c/6.2.1/../../../../pic32c/lib/v7e-m/fpv4-sp/hard\libc_nano.a(lib_a-init.o)
 .data          0x00000000        0x0 c:/program files/microchip/xc32/v2.40/bin/bin/../../lib/gcc/pic32c/6.2.1/../../../../pic32c/lib/v7e-m/fpv4-sp/hard\libc_nano.a(lib_a-init.o)
 .bss           0x00000000        0x0 c:/program files/microchip/xc32/v2.40/bin/bin/../../lib/gcc/pic32c/6.2.1/../../../../pic32c/lib/v7e-m/fpv4-sp/hard\libc_nano.a(lib_a-init.o)
 .text          0x00000000        0x0 c:/program files/microchip/xc32/v2.40/bin/bin/../../lib/gcc/pic32c/6.2.1/../../../../pic32c/lib/v7e-m/fpv4-sp/hard\libc_nano.a(lib_a-memcpy-stub.o)
 .data          0x00000000        0x0 c:/program files/microchip/xc32/v2.40/bin/bin/../../lib/gcc/pic32c/6.2.1/../../../../pic32c/lib/v7e-m/fpv4-sp/hard\libc_nano.a(lib_a-memcpy-stub.o)
 .bss           0x00000000        0x0 c:/program files/microchip/xc32/v2.40/bin/bin/../../lib/gcc/pic32c/6.2.1/../../../../pic32c/lib/v7e-m/fpv4-sp/hard\libc_nano.a(lib_a-memcpy-stub.o)
 .text.memcpy   0x00000000       0x16 c:/program files/microchip/xc32/v2.40/bin/bin/../../lib/gcc/pic32c/6.2.1/../../../../pic32c/lib/v7e-m/fpv4-sp/hard\libc_nano.a(lib_a-memcpy-stub.o)
 .debug_info    0x00000000      0xe68 c:/program files/microchip/xc32/v2.40/bin/bin/../../lib/gcc/pic32c/6.2.1/../../../../pic32c/lib/v7e-m/fpv4-sp/hard\libc_nano.a(lib_a-memcpy-stub.o)
 .debug_abbrev  0x00000000      0x17c c:/program files/microchip/xc32/v2.40/bin/bin/../../lib/gcc/pic32c/6.2.1/../../../../pic32c/lib/v7e-m/fpv4-sp/hard\libc_nano.a(lib_a-memcpy-stub.o)
 .debug_loc     0x00000000       0xb2 c:/program files/microchip/xc32/v2.40/bin/bin/../../lib/gcc/pic32c/6.2.1/../../../../pic32c/lib/v7e-m/fpv4-sp/hard\libc_nano.a(lib_a-memcpy-stub.o)
 .debug_aranges
                0x00000000       0x20 c:/program files/microchip/xc32/v2.40/bin/bin/../../lib/gcc/pic32c/6.2.1/../../../../pic32c/lib/v7e-m/fpv4-sp/hard\libc_nano.a(lib_a-memcpy-stub.o)
 .debug_ranges  0x00000000       0x10 c:/program files/microchip/xc32/v2.40/bin/bin/../../lib/gcc/pic32c/6.2.1/../../../../pic32c/lib/v7e-m/fpv4-sp/hard\libc_nano.a(lib_a-memcpy-stub.o)
 .debug_line    0x00000000      0x218 c:/program files/microchip/xc32/v2.40/bin/bin/../../lib/gcc/pic32c/6.2.1/../../../../pic32c/lib/v7e-m/fpv4-sp/hard\libc_nano.a(lib_a-memcpy-stub.o)
 .debug_str     0x00000000        0x9 c:/program files/microchip/xc32/v2.40/bin/bin/../../lib/gcc/pic32c/6.2.1/../../../../pic32c/lib/v7e-m/fpv4-sp/hard\libc_nano.a(lib_a-memcpy-stub.o)
 .comment       0x00000000       0x3d c:/program files/microchip/xc32/v2.40/bin/bin/../../lib/gcc/pic32c/6.2.1/../../../../pic32c/lib/v7e-m/fpv4-sp/hard\libc_nano.a(lib_a-memcpy-stub.o)
 .debug_frame   0x00000000       0x28 c:/program files/microchip/xc32/v2.40/bin/bin/../../lib/gcc/pic32c/6.2.1/../../../../pic32c/lib/v7e-m/fpv4-sp/hard\libc_nano.a(lib_a-memcpy-stub.o)
 .ARM.attributes
                0x00000000       0x34 c:/program files/microchip/xc32/v2.40/bin/bin/../../lib/gcc/pic32c/6.2.1/../../../../pic32c/lib/v7e-m/fpv4-sp/hard\libc_nano.a(lib_a-memcpy-stub.o)
 .text          0x00000000        0x0 c:/program files/microchip/xc32/v2.40/bin/bin/../../lib/gcc/pic32c/6.2.1/../../../../pic32c/lib/v7e-m/fpv4-sp/hard\libc_nano.a(lib_a-memmove.o)
 .data          0x00000000        0x0 c:/program files/microchip/xc32/v2.40/bin/bin/../../lib/gcc/pic32c/6.2.1/../../../../pic32c/lib/v7e-m/fpv4-sp/hard\libc_nano.a(lib_a-memmove.o)
 .bss           0x00000000        0x0 c:/program files/microchip/xc32/v2.40/bin/bin/../../lib/gcc/pic32c/6.2.1/../../../../pic32c/lib/v7e-m/fpv4-sp/hard\libc_nano.a(lib_a-memmove.o)
 .text          0x00000000        0x0 c:/program files/microchip/xc32/v2.40/bin/bin/../../lib/gcc/pic32c/6.2.1/../../../../pic32c/lib/v7e-m/fpv4-sp/hard\libc_nano.a(_lib_a-printf.cdnopsuxX.o)
 .data          0x00000000        0x0 c:/program files/microchip/xc32/v2.40/bin/bin/../../lib/gcc/pic32c/6.2.1/../../../../pic32c/lib/v7e-m/fpv4-sp/hard\libc_nano.a(_lib_a-printf.cdnopsuxX.o)
 .bss           0x00000000        0x0 c:/program files/microchip/xc32/v2.40/bin/bin/../../lib/gcc/pic32c/6.2.1/../../../../pic32c/lib/v7e-m/fpv4-sp/hard\libc_nano.a(_lib_a-printf.cdnopsuxX.o)
 .text          0x00000000        0x0 c:/program files/microchip/xc32/v2.40/bin/bin/../../lib/gcc/pic32c/6.2.1/../../../../pic32c/lib/v7e-m/fpv4-sp/hard\libc_nano.a(lib_a-puts.o)
 .data          0x00000000        0x0 c:/program files/microchip/xc32/v2.40/bin/bin/../../lib/gcc/pic32c/6.2.1/../../../../pic32c/lib/v7e-m/fpv4-sp/hard\libc_nano.a(lib_a-puts.o)
 .bss           0x00000000        0x0 c:/program files/microchip/xc32/v2.40/bin/bin/../../lib/gcc/pic32c/6.2.1/../../../../pic32c/lib/v7e-m/fpv4-sp/hard\libc_nano.a(lib_a-puts.o)
 .text          0x00000000       0x10 c:/program files/microchip/xc32/v2.40/bin/bin/../../lib/gcc/pic32c/6.2.1/../../../../pic32c/lib/v7e-m/fpv4-sp/hard\libc_nano.a(lib_a-strlen.o)
 .data          0x00000000        0x0 c:/program files/microchip/xc32/v2.40/bin/bin/../../lib/gcc/pic32c/6.2.1/../../../../pic32c/lib/v7e-m/fpv4-sp/hard\libc_nano.a(lib_a-strlen.o)
 .bss           0x00000000        0x0 c:/program files/microchip/xc32/v2.40/bin/bin/../../lib/gcc/pic32c/6.2.1/../../../../pic32c/lib/v7e-m/fpv4-sp/hard\libc_nano.a(lib_a-strlen.o)
 .debug_line    0x00000000       0xb1 c:/program files/microchip/xc32/v2.40/bin/bin/../../lib/gcc/pic32c/6.2.1/../../../../pic32c/lib/v7e-m/fpv4-sp/hard\libc_nano.a(lib_a-strlen.o)
 .debug_info    0x00000000      0x12a c:/program files/microchip/xc32/v2.40/bin/bin/../../lib/gcc/pic32c/6.2.1/../../../../pic32c/lib/v7e-m/fpv4-sp/hard\libc_nano.a(lib_a-strlen.o)
 .debug_abbrev  0x00000000       0x14 c:/program files/microchip/xc32/v2.40/bin/bin/../../lib/gcc/pic32c/6.2.1/../../../../pic32c/lib/v7e-m/fpv4-sp/hard\libc_nano.a(lib_a-strlen.o)
 .debug_aranges
                0x00000000       0x20 c:/program files/microchip/xc32/v2.40/bin/bin/../../lib/gcc/pic32c/6.2.1/../../../../pic32c/lib/v7e-m/fpv4-sp/hard\libc_nano.a(lib_a-strlen.o)
 .ARM.attributes
                0x00000000       0x1b c:/program files/microchip/xc32/v2.40/bin/bin/../../lib/gcc/pic32c/6.2.1/../../../../pic32c/lib/v7e-m/fpv4-sp/hard\libc_nano.a(lib_a-strlen.o)
 .text          0x00000000        0x0 c:/program files/microchip/xc32/v2.40/bin/bin/../../lib/gcc/pic32c/6.2.1/../../../../pic32c/lib/v7e-m/fpv4-sp/hard\libc_nano.a(lib_a-wbuf.o)
 .data          0x00000000        0x0 c:/program files/microchip/xc32/v2.40/bin/bin/../../lib/gcc/pic32c/6.2.1/../../../../pic32c/lib/v7e-m/fpv4-sp/hard\libc_nano.a(lib_a-wbuf.o)
 .bss           0x00000000        0x0 c:/program files/microchip/xc32/v2.40/bin/bin/../../lib/gcc/pic32c/6.2.1/../../../../pic32c/lib/v7e-m/fpv4-sp/hard\libc_nano.a(lib_a-wbuf.o)
 .text.__swbuf  0x00000000       0x10 c:/program files/microchip/xc32/v2.40/bin/bin/../../lib/gcc/pic32c/6.2.1/../../../../pic32c/lib/v7e-m/fpv4-sp/hard\libc_nano.a(lib_a-wbuf.o)
 .text          0x00000000        0x0 c:/program files/microchip/xc32/v2.40/bin/bin/../../lib/gcc/pic32c/6.2.1/../../../../pic32c/lib/v7e-m/fpv4-sp/hard\libc_nano.a(lib_a-wsetup.o)
 .data          0x00000000        0x0 c:/program files/microchip/xc32/v2.40/bin/bin/../../lib/gcc/pic32c/6.2.1/../../../../pic32c/lib/v7e-m/fpv4-sp/hard\libc_nano.a(lib_a-wsetup.o)
 .bss           0x00000000        0x0 c:/program files/microchip/xc32/v2.40/bin/bin/../../lib/gcc/pic32c/6.2.1/../../../../pic32c/lib/v7e-m/fpv4-sp/hard\libc_nano.a(lib_a-wsetup.o)
 .text          0x00000000        0x0 c:/program files/microchip/xc32/v2.40/bin/bin/../../lib/gcc/pic32c/6.2.1/../../../../pic32c/lib/v7e-m/fpv4-sp/hard\libc_nano.a(lib_a-fflush.o)
 .data          0x00000000        0x0 c:/program files/microchip/xc32/v2.40/bin/bin/../../lib/gcc/pic32c/6.2.1/../../../../pic32c/lib/v7e-m/fpv4-sp/hard\libc_nano.a(lib_a-fflush.o)
 .bss           0x00000000        0x0 c:/program files/microchip/xc32/v2.40/bin/bin/../../lib/gcc/pic32c/6.2.1/../../../../pic32c/lib/v7e-m/fpv4-sp/hard\libc_nano.a(lib_a-fflush.o)
 .text.fflush   0x00000000       0x24 c:/program files/microchip/xc32/v2.40/bin/bin/../../lib/gcc/pic32c/6.2.1/../../../../pic32c/lib/v7e-m/fpv4-sp/hard\libc_nano.a(lib_a-fflush.o)
 .text          0x00000000        0x0 c:/program files/microchip/xc32/v2.40/bin/bin/../../lib/gcc/pic32c/6.2.1/../../../../pic32c/lib/v7e-m/fpv4-sp/hard\libc_nano.a(lib_a-findfp.o)
 .data          0x00000000        0x0 c:/program files/microchip/xc32/v2.40/bin/bin/../../lib/gcc/pic32c/6.2.1/../../../../pic32c/lib/v7e-m/fpv4-sp/hard\libc_nano.a(lib_a-findfp.o)
 .bss           0x00000000        0x0 c:/program files/microchip/xc32/v2.40/bin/bin/../../lib/gcc/pic32c/6.2.1/../../../../pic32c/lib/v7e-m/fpv4-sp/hard\libc_nano.a(lib_a-findfp.o)
 .text._cleanup
                0x00000000        0xc c:/program files/microchip/xc32/v2.40/bin/bin/../../lib/gcc/pic32c/6.2.1/../../../../pic32c/lib/v7e-m/fpv4-sp/hard\libc_nano.a(lib_a-findfp.o)
 .text          0x00000000        0x0 c:/program files/microchip/xc32/v2.40/bin/bin/../../lib/gcc/pic32c/6.2.1/../../../../pic32c/lib/v7e-m/fpv4-sp/hard\libc_nano.a(lib_a-fwalk.o)
 .data          0x00000000        0x0 c:/program files/microchip/xc32/v2.40/bin/bin/../../lib/gcc/pic32c/6.2.1/../../../../pic32c/lib/v7e-m/fpv4-sp/hard\libc_nano.a(lib_a-fwalk.o)
 .bss           0x00000000        0x0 c:/program files/microchip/xc32/v2.40/bin/bin/../../lib/gcc/pic32c/6.2.1/../../../../pic32c/lib/v7e-m/fpv4-sp/hard\libc_nano.a(lib_a-fwalk.o)
 .text._fwalk   0x00000000       0x38 c:/program files/microchip/xc32/v2.40/bin/bin/../../lib/gcc/pic32c/6.2.1/../../../../pic32c/lib/v7e-m/fpv4-sp/hard\libc_nano.a(lib_a-fwalk.o)
 .text          0x00000000        0x0 c:/program files/microchip/xc32/v2.40/bin/bin/../../lib/gcc/pic32c/6.2.1/../../../../pic32c/lib/v7e-m/fpv4-sp/hard\libc_nano.a(lib_a-impure.o)
 .data          0x00000000        0x0 c:/program files/microchip/xc32/v2.40/bin/bin/../../lib/gcc/pic32c/6.2.1/../../../../pic32c/lib/v7e-m/fpv4-sp/hard\libc_nano.a(lib_a-impure.o)
 .bss           0x00000000        0x0 c:/program files/microchip/xc32/v2.40/bin/bin/../../lib/gcc/pic32c/6.2.1/../../../../pic32c/lib/v7e-m/fpv4-sp/hard\libc_nano.a(lib_a-impure.o)
 .text          0x00000000        0x0 c:/program files/microchip/xc32/v2.40/bin/bin/../../lib/gcc/pic32c/6.2.1/../../../../pic32c/lib/v7e-m/fpv4-sp/hard\libc_nano.a(lib_a-makebuf.o)
 .data          0x00000000        0x0 c:/program files/microchip/xc32/v2.40/bin/bin/../../lib/gcc/pic32c/6.2.1/../../../../pic32c/lib/v7e-m/fpv4-sp/hard\libc_nano.a(lib_a-makebuf.o)
 .bss           0x00000000        0x0 c:/program files/microchip/xc32/v2.40/bin/bin/../../lib/gcc/pic32c/6.2.1/../../../../pic32c/lib/v7e-m/fpv4-sp/hard\libc_nano.a(lib_a-makebuf.o)
 .text          0x00000000        0x0 c:/program files/microchip/xc32/v2.40/bin/bin/../../lib/gcc/pic32c/6.2.1/../../../../pic32c/lib/v7e-m/fpv4-sp/hard\libc_nano.a(lib_a-memset.o)
 .data          0x00000000        0x0 c:/program files/microchip/xc32/v2.40/bin/bin/../../lib/gcc/pic32c/6.2.1/../../../../pic32c/lib/v7e-m/fpv4-sp/hard\libc_nano.a(lib_a-memset.o)
 .bss           0x00000000        0x0 c:/program files/microchip/xc32/v2.40/bin/bin/../../lib/gcc/pic32c/6.2.1/../../../../pic32c/lib/v7e-m/fpv4-sp/hard\libc_nano.a(lib_a-memset.o)
 .text          0x00000000        0x0 c:/program files/microchip/xc32/v2.40/bin/bin/../../lib/gcc/pic32c/6.2.1/../../../../pic32c/lib/v7e-m/fpv4-sp/hard\libc_nano.a(lib_a-nano-freer.o)
 .data          0x00000000        0x0 c:/program files/microchip/xc32/v2.40/bin/bin/../../lib/gcc/pic32c/6.2.1/../../../../pic32c/lib/v7e-m/fpv4-sp/hard\libc_nano.a(lib_a-nano-freer.o)
 .bss           0x00000000        0x0 c:/program files/microchip/xc32/v2.40/bin/bin/../../lib/gcc/pic32c/6.2.1/../../../../pic32c/lib/v7e-m/fpv4-sp/hard\libc_nano.a(lib_a-nano-freer.o)
 .text          0x00000000        0x0 c:/program files/microchip/xc32/v2.40/bin/bin/../../lib/gcc/pic32c/6.2.1/../../../../pic32c/lib/v7e-m/fpv4-sp/hard\libc_nano.a(lib_a-nano-mallocr.o)
 .data          0x00000000        0x0 c:/program files/microchip/xc32/v2.40/bin/bin/../../lib/gcc/pic32c/6.2.1/../../../../pic32c/lib/v7e-m/fpv4-sp/hard\libc_nano.a(lib_a-nano-mallocr.o)
 .bss           0x00000000        0x0 c:/program files/microchip/xc32/v2.40/bin/bin/../../lib/gcc/pic32c/6.2.1/../../../../pic32c/lib/v7e-m/fpv4-sp/hard\libc_nano.a(lib_a-nano-mallocr.o)
 .text          0x00000000        0x0 c:/program files/microchip/xc32/v2.40/bin/bin/../../lib/gcc/pic32c/6.2.1/../../../../pic32c/lib/v7e-m/fpv4-sp/hard\libc_nano.a(_lib_a-nano-vfprintf.cdnopsuxX.o)
 .data          0x00000000        0x0 c:/program files/microchip/xc32/v2.40/bin/bin/../../lib/gcc/pic32c/6.2.1/../../../../pic32c/lib/v7e-m/fpv4-sp/hard\libc_nano.a(_lib_a-nano-vfprintf.cdnopsuxX.o)
 .bss           0x00000000        0x0 c:/program files/microchip/xc32/v2.40/bin/bin/../../lib/gcc/pic32c/6.2.1/../../../../pic32c/lib/v7e-m/fpv4-sp/hard\libc_nano.a(_lib_a-nano-vfprintf.cdnopsuxX.o)
 .text.__printf_float
                0x00000000        0x6 c:/program files/microchip/xc32/v2.40/bin/bin/../../lib/gcc/pic32c/6.2.1/../../../../pic32c/lib/v7e-m/fpv4-sp/hard\libc_nano.a(_lib_a-nano-vfprintf.cdnopsuxX.o)
 .text          0x00000000        0x0 c:/program files/microchip/xc32/v2.40/bin/bin/../../lib/gcc/pic32c/6.2.1/../../../../pic32c/lib/v7e-m/fpv4-sp/hard\libc_nano.a(lib_a-nano-vfprintf_i.o)
 .data          0x00000000        0x0 c:/program files/microchip/xc32/v2.40/bin/bin/../../lib/gcc/pic32c/6.2.1/../../../../pic32c/lib/v7e-m/fpv4-sp/hard\libc_nano.a(lib_a-nano-vfprintf_i.o)
 .bss           0x00000000        0x0 c:/program files/microchip/xc32/v2.40/bin/bin/../../lib/gcc/pic32c/6.2.1/../../../../pic32c/lib/v7e-m/fpv4-sp/hard\libc_nano.a(lib_a-nano-vfprintf_i.o)
 .text._printf_i
                0x00000000      0x240 c:/program files/microchip/xc32/v2.40/bin/bin/../../lib/gcc/pic32c/6.2.1/../../../../pic32c/lib/v7e-m/fpv4-sp/hard\libc_nano.a(lib_a-nano-vfprintf_i.o)
 .rodata        0x00000000       0x22 c:/program files/microchip/xc32/v2.40/bin/bin/../../lib/gcc/pic32c/6.2.1/../../../../pic32c/lib/v7e-m/fpv4-sp/hard\libc_nano.a(lib_a-nano-vfprintf_i.o)
 .text          0x00000000        0x0 c:/program files/microchip/xc32/v2.40/bin/bin/../../lib/gcc/pic32c/6.2.1/../../../../pic32c/lib/v7e-m/fpv4-sp/hard\libc_nano.a(lib_a-sbrkr.o)
 .data          0x00000000        0x0 c:/program files/microchip/xc32/v2.40/bin/bin/../../lib/gcc/pic32c/6.2.1/../../../../pic32c/lib/v7e-m/fpv4-sp/hard\libc_nano.a(lib_a-sbrkr.o)
 .bss           0x00000000        0x0 c:/program files/microchip/xc32/v2.40/bin/bin/../../lib/gcc/pic32c/6.2.1/../../../../pic32c/lib/v7e-m/fpv4-sp/hard\libc_nano.a(lib_a-sbrkr.o)
 .text          0x00000000        0x0 c:/program files/microchip/xc32/v2.40/bin/bin/../../lib/gcc/pic32c/6.2.1/../../../../pic32c/lib/v7e-m/fpv4-sp/hard\libc_nano.a(lib_a-__ssfputs.o)
 .data          0x00000000        0x0 c:/program files/microchip/xc32/v2.40/bin/bin/../../lib/gcc/pic32c/6.2.1/../../../../pic32c/lib/v7e-m/fpv4-sp/hard\libc_nano.a(lib_a-__ssfputs.o)
 .bss           0x00000000        0x0 c:/program files/microchip/xc32/v2.40/bin/bin/../../lib/gcc/pic32c/6.2.1/../../../../pic32c/lib/v7e-m/fpv4-sp/hard\libc_nano.a(lib_a-__ssfputs.o)
 .text          0x00000000        0x0 c:/program files/microchip/xc32/v2.40/bin/bin/../../lib/gcc/pic32c/6.2.1/../../../../pic32c/lib/v7e-m/fpv4-sp/hard\libc_nano.a(lib_a-stdio.o)
 .data          0x00000000        0x0 c:/program files/microchip/xc32/v2.40/bin/bin/../../lib/gcc/pic32c/6.2.1/../../../../pic32c/lib/v7e-m/fpv4-sp/hard\libc_nano.a(lib_a-stdio.o)
 .bss           0x00000000        0x0 c:/program files/microchip/xc32/v2.40/bin/bin/../../lib/gcc/pic32c/6.2.1/../../../../pic32c/lib/v7e-m/fpv4-sp/hard\libc_nano.a(lib_a-stdio.o)
 .text.__seofread
                0x00000000        0x4 c:/program files/microchip/xc32/v2.40/bin/bin/../../lib/gcc/pic32c/6.2.1/../../../../pic32c/lib/v7e-m/fpv4-sp/hard\libc_nano.a(lib_a-stdio.o)
 .text          0x00000000        0x0 c:/program files/microchip/xc32/v2.40/bin/bin/../../lib/gcc/pic32c/6.2.1/../../../../pic32c/lib/v7e-m/fpv4-sp/hard\libc_nano.a(lib_a-writer.o)
 .data          0x00000000        0x0 c:/program files/microchip/xc32/v2.40/bin/bin/../../lib/gcc/pic32c/6.2.1/../../../../pic32c/lib/v7e-m/fpv4-sp/hard\libc_nano.a(lib_a-writer.o)
 .bss           0x00000000        0x0 c:/program files/microchip/xc32/v2.40/bin/bin/../../lib/gcc/pic32c/6.2.1/../../../../pic32c/lib/v7e-m/fpv4-sp/hard\libc_nano.a(lib_a-writer.o)
 .text          0x00000000        0x0 c:/program files/microchip/xc32/v2.40/bin/bin/../../lib/gcc/pic32c/6.2.1/../../../../pic32c/lib/v7e-m/fpv4-sp/hard\libc_nano.a(lib_a-closer.o)
 .data          0x00000000        0x0 c:/program files/microchip/xc32/v2.40/bin/bin/../../lib/gcc/pic32c/6.2.1/../../../../pic32c/lib/v7e-m/fpv4-sp/hard\libc_nano.a(lib_a-closer.o)
 .bss           0x00000000        0x0 c:/program files/microchip/xc32/v2.40/bin/bin/../../lib/gcc/pic32c/6.2.1/../../../../pic32c/lib/v7e-m/fpv4-sp/hard\libc_nano.a(lib_a-closer.o)
 .text          0x00000000        0x0 c:/program files/microchip/xc32/v2.40/bin/bin/../../lib/gcc/pic32c/6.2.1/../../../../pic32c/lib/v7e-m/fpv4-sp/hard\libc_nano.a(lib_a-fputwc.o)
 .data          0x00000000        0x0 c:/program files/microchip/xc32/v2.40/bin/bin/../../lib/gcc/pic32c/6.2.1/../../../../pic32c/lib/v7e-m/fpv4-sp/hard\libc_nano.a(lib_a-fputwc.o)
 .bss           0x00000000        0x0 c:/program files/microchip/xc32/v2.40/bin/bin/../../lib/gcc/pic32c/6.2.1/../../../../pic32c/lib/v7e-m/fpv4-sp/hard\libc_nano.a(lib_a-fputwc.o)
 .text.fputwc   0x00000000       0x50 c:/program files/microchip/xc32/v2.40/bin/bin/../../lib/gcc/pic32c/6.2.1/../../../../pic32c/lib/v7e-m/fpv4-sp/hard\libc_nano.a(lib_a-fputwc.o)
 .text          0x00000000        0x0 c:/program files/microchip/xc32/v2.40/bin/bin/../../lib/gcc/pic32c/6.2.1/../../../../pic32c/lib/v7e-m/fpv4-sp/hard\libc_nano.a(lib_a-fstatr.o)
 .data          0x00000000        0x0 c:/program files/microchip/xc32/v2.40/bin/bin/../../lib/gcc/pic32c/6.2.1/../../../../pic32c/lib/v7e-m/fpv4-sp/hard\libc_nano.a(lib_a-fstatr.o)
 .bss           0x00000000        0x0 c:/program files/microchip/xc32/v2.40/bin/bin/../../lib/gcc/pic32c/6.2.1/../../../../pic32c/lib/v7e-m/fpv4-sp/hard\libc_nano.a(lib_a-fstatr.o)
 .text          0x00000000        0x0 c:/program files/microchip/xc32/v2.40/bin/bin/../../lib/gcc/pic32c/6.2.1/../../../../pic32c/lib/v7e-m/fpv4-sp/hard\libc_nano.a(lib_a-isattyr.o)
 .data          0x00000000        0x0 c:/program files/microchip/xc32/v2.40/bin/bin/../../lib/gcc/pic32c/6.2.1/../../../../pic32c/lib/v7e-m/fpv4-sp/hard\libc_nano.a(lib_a-isattyr.o)
 .bss           0x00000000        0x0 c:/program files/microchip/xc32/v2.40/bin/bin/../../lib/gcc/pic32c/6.2.1/../../../../pic32c/lib/v7e-m/fpv4-sp/hard\libc_nano.a(lib_a-isattyr.o)
 .text          0x00000000        0x0 c:/program files/microchip/xc32/v2.40/bin/bin/../../lib/gcc/pic32c/6.2.1/../../../../pic32c/lib/v7e-m/fpv4-sp/hard\libc_nano.a(lib_a-locale.o)
 .data          0x00000000        0x0 c:/program files/microchip/xc32/v2.40/bin/bin/../../lib/gcc/pic32c/6.2.1/../../../../pic32c/lib/v7e-m/fpv4-sp/hard\libc_nano.a(lib_a-locale.o)
 .bss           0x00000000        0x0 c:/program files/microchip/xc32/v2.40/bin/bin/../../lib/gcc/pic32c/6.2.1/../../../../pic32c/lib/v7e-m/fpv4-sp/hard\libc_nano.a(lib_a-locale.o)
 .text._setlocale_r
                0x00000000       0x38 c:/program files/microchip/xc32/v2.40/bin/bin/../../lib/gcc/pic32c/6.2.1/../../../../pic32c/lib/v7e-m/fpv4-sp/hard\libc_nano.a(lib_a-locale.o)
 .text.__locale_ctype_ptr_l
                0x00000000        0x6 c:/program files/microchip/xc32/v2.40/bin/bin/../../lib/gcc/pic32c/6.2.1/../../../../pic32c/lib/v7e-m/fpv4-sp/hard\libc_nano.a(lib_a-locale.o)
 .text.__locale_ctype_ptr
                0x00000000       0x1c c:/program files/microchip/xc32/v2.40/bin/bin/../../lib/gcc/pic32c/6.2.1/../../../../pic32c/lib/v7e-m/fpv4-sp/hard\libc_nano.a(lib_a-locale.o)
 .text.setlocale
                0x00000000       0x10 c:/program files/microchip/xc32/v2.40/bin/bin/../../lib/gcc/pic32c/6.2.1/../../../../pic32c/lib/v7e-m/fpv4-sp/hard\libc_nano.a(lib_a-locale.o)
 .bss._PathLocale
                0x00000000        0x4 c:/program files/microchip/xc32/v2.40/bin/bin/../../lib/gcc/pic32c/6.2.1/../../../../pic32c/lib/v7e-m/fpv4-sp/hard\libc_nano.a(lib_a-locale.o)
 .text          0x00000000        0x0 c:/program files/microchip/xc32/v2.40/bin/bin/../../lib/gcc/pic32c/6.2.1/../../../../pic32c/lib/v7e-m/fpv4-sp/hard\libc_nano.a(lib_a-lseekr.o)
 .data          0x00000000        0x0 c:/program files/microchip/xc32/v2.40/bin/bin/../../lib/gcc/pic32c/6.2.1/../../../../pic32c/lib/v7e-m/fpv4-sp/hard\libc_nano.a(lib_a-lseekr.o)
 .bss           0x00000000        0x0 c:/program files/microchip/xc32/v2.40/bin/bin/../../lib/gcc/pic32c/6.2.1/../../../../pic32c/lib/v7e-m/fpv4-sp/hard\libc_nano.a(lib_a-lseekr.o)
 .text          0x00000000        0x0 c:/program files/microchip/xc32/v2.40/bin/bin/../../lib/gcc/pic32c/6.2.1/../../../../pic32c/lib/v7e-m/fpv4-sp/hard\libc_nano.a(lib_a-mbtowc_r.o)
 .data          0x00000000        0x0 c:/program files/microchip/xc32/v2.40/bin/bin/../../lib/gcc/pic32c/6.2.1/../../../../pic32c/lib/v7e-m/fpv4-sp/hard\libc_nano.a(lib_a-mbtowc_r.o)
 .bss           0x00000000        0x0 c:/program files/microchip/xc32/v2.40/bin/bin/../../lib/gcc/pic32c/6.2.1/../../../../pic32c/lib/v7e-m/fpv4-sp/hard\libc_nano.a(lib_a-mbtowc_r.o)
 .text._mbtowc_r
                0x00000000       0x24 c:/program files/microchip/xc32/v2.40/bin/bin/../../lib/gcc/pic32c/6.2.1/../../../../pic32c/lib/v7e-m/fpv4-sp/hard\libc_nano.a(lib_a-mbtowc_r.o)
 .data          0x00000000        0x0 c:/program files/microchip/xc32/v2.40/bin/bin/../../lib/gcc/pic32c/6.2.1/../../../../pic32c/lib/v7e-m/fpv4-sp/hard\libc_nano.a(lib_a-memchr.o)
 .bss           0x00000000        0x0 c:/program files/microchip/xc32/v2.40/bin/bin/../../lib/gcc/pic32c/6.2.1/../../../../pic32c/lib/v7e-m/fpv4-sp/hard\libc_nano.a(lib_a-memchr.o)
 .text          0x00000000        0x0 c:/program files/microchip/xc32/v2.40/bin/bin/../../lib/gcc/pic32c/6.2.1/../../../../pic32c/lib/v7e-m/fpv4-sp/hard\libc_nano.a(lib_a-mlock.o)
 .data          0x00000000        0x0 c:/program files/microchip/xc32/v2.40/bin/bin/../../lib/gcc/pic32c/6.2.1/../../../../pic32c/lib/v7e-m/fpv4-sp/hard\libc_nano.a(lib_a-mlock.o)
 .bss           0x00000000        0x0 c:/program files/microchip/xc32/v2.40/bin/bin/../../lib/gcc/pic32c/6.2.1/../../../../pic32c/lib/v7e-m/fpv4-sp/hard\libc_nano.a(lib_a-mlock.o)
 .text          0x00000000        0x0 c:/program files/microchip/xc32/v2.40/bin/bin/../../lib/gcc/pic32c/6.2.1/../../../../pic32c/lib/v7e-m/fpv4-sp/hard\libc_nano.a(lib_a-readr.o)
 .data          0x00000000        0x0 c:/program files/microchip/xc32/v2.40/bin/bin/../../lib/gcc/pic32c/6.2.1/../../../../pic32c/lib/v7e-m/fpv4-sp/hard\libc_nano.a(lib_a-readr.o)
 .bss           0x00000000        0x0 c:/program files/microchip/xc32/v2.40/bin/bin/../../lib/gcc/pic32c/6.2.1/../../../../pic32c/lib/v7e-m/fpv4-sp/hard\libc_nano.a(lib_a-readr.o)
 .text          0x00000000        0x0 c:/program files/microchip/xc32/v2.40/bin/bin/../../lib/gcc/pic32c/6.2.1/../../../../pic32c/lib/v7e-m/fpv4-sp/hard\libc_nano.a(lib_a-reent.o)
 .data          0x00000000        0x0 c:/program files/microchip/xc32/v2.40/bin/bin/../../lib/gcc/pic32c/6.2.1/../../../../pic32c/lib/v7e-m/fpv4-sp/hard\libc_nano.a(lib_a-reent.o)
 .bss           0x00000000        0x0 c:/program files/microchip/xc32/v2.40/bin/bin/../../lib/gcc/pic32c/6.2.1/../../../../pic32c/lib/v7e-m/fpv4-sp/hard\libc_nano.a(lib_a-reent.o)
 .text.cleanup_glue
                0x00000000       0x1a c:/program files/microchip/xc32/v2.40/bin/bin/../../lib/gcc/pic32c/6.2.1/../../../../pic32c/lib/v7e-m/fpv4-sp/hard\libc_nano.a(lib_a-reent.o)
 .text._reclaim_reent
                0x00000000       0xb8 c:/program files/microchip/xc32/v2.40/bin/bin/../../lib/gcc/pic32c/6.2.1/../../../../pic32c/lib/v7e-m/fpv4-sp/hard\libc_nano.a(lib_a-reent.o)
 .text          0x00000000       0x14 c:/program files/microchip/xc32/v2.40/bin/bin/../../lib/gcc/pic32c/6.2.1/../../../../pic32c/lib/v7e-m/fpv4-sp/hard\libc_nano.a(lib_a-strcmp.o)
 .data          0x00000000        0x0 c:/program files/microchip/xc32/v2.40/bin/bin/../../lib/gcc/pic32c/6.2.1/../../../../pic32c/lib/v7e-m/fpv4-sp/hard\libc_nano.a(lib_a-strcmp.o)
 .bss           0x00000000        0x0 c:/program files/microchip/xc32/v2.40/bin/bin/../../lib/gcc/pic32c/6.2.1/../../../../pic32c/lib/v7e-m/fpv4-sp/hard\libc_nano.a(lib_a-strcmp.o)
 .debug_line    0x00000000       0xb1 c:/program files/microchip/xc32/v2.40/bin/bin/../../lib/gcc/pic32c/6.2.1/../../../../pic32c/lib/v7e-m/fpv4-sp/hard\libc_nano.a(lib_a-strcmp.o)
 .debug_info    0x00000000      0x129 c:/program files/microchip/xc32/v2.40/bin/bin/../../lib/gcc/pic32c/6.2.1/../../../../pic32c/lib/v7e-m/fpv4-sp/hard\libc_nano.a(lib_a-strcmp.o)
 .debug_abbrev  0x00000000       0x14 c:/program files/microchip/xc32/v2.40/bin/bin/../../lib/gcc/pic32c/6.2.1/../../../../pic32c/lib/v7e-m/fpv4-sp/hard\libc_nano.a(lib_a-strcmp.o)
 .debug_aranges
                0x00000000       0x20 c:/program files/microchip/xc32/v2.40/bin/bin/../../lib/gcc/pic32c/6.2.1/../../../../pic32c/lib/v7e-m/fpv4-sp/hard\libc_nano.a(lib_a-strcmp.o)
 .debug_frame   0x00000000       0x20 c:/program files/microchip/xc32/v2.40/bin/bin/../../lib/gcc/pic32c/6.2.1/../../../../pic32c/lib/v7e-m/fpv4-sp/hard\libc_nano.a(lib_a-strcmp.o)
 .ARM.attributes
                0x00000000       0x20 c:/program files/microchip/xc32/v2.40/bin/bin/../../lib/gcc/pic32c/6.2.1/../../../../pic32c/lib/v7e-m/fpv4-sp/hard\libc_nano.a(lib_a-strcmp.o)
 .text          0x00000000        0x0 c:/program files/microchip/xc32/v2.40/bin/bin/../../lib/gcc/pic32c/6.2.1/../../../../pic32c/lib/v7e-m/fpv4-sp/hard\libc_nano.a(lib_a-wcrtomb.o)
 .data          0x00000000        0x0 c:/program files/microchip/xc32/v2.40/bin/bin/../../lib/gcc/pic32c/6.2.1/../../../../pic32c/lib/v7e-m/fpv4-sp/hard\libc_nano.a(lib_a-wcrtomb.o)
 .bss           0x00000000        0x0 c:/program files/microchip/xc32/v2.40/bin/bin/../../lib/gcc/pic32c/6.2.1/../../../../pic32c/lib/v7e-m/fpv4-sp/hard\libc_nano.a(lib_a-wcrtomb.o)
 .text.wcrtomb  0x00000000       0x14 c:/program files/microchip/xc32/v2.40/bin/bin/../../lib/gcc/pic32c/6.2.1/../../../../pic32c/lib/v7e-m/fpv4-sp/hard\libc_nano.a(lib_a-wcrtomb.o)
 .text          0x00000000        0x0 c:/program files/microchip/xc32/v2.40/bin/bin/../../lib/gcc/pic32c/6.2.1/../../../../pic32c/lib/v7e-m/fpv4-sp/hard\libc_nano.a(lib_a-wctomb_r.o)
 .data          0x00000000        0x0 c:/program files/microchip/xc32/v2.40/bin/bin/../../lib/gcc/pic32c/6.2.1/../../../../pic32c/lib/v7e-m/fpv4-sp/hard\libc_nano.a(lib_a-wctomb_r.o)
 .bss           0x00000000        0x0 c:/program files/microchip/xc32/v2.40/bin/bin/../../lib/gcc/pic32c/6.2.1/../../../../pic32c/lib/v7e-m/fpv4-sp/hard\libc_nano.a(lib_a-wctomb_r.o)
 .text._wctomb_r
                0x00000000       0x24 c:/program files/microchip/xc32/v2.40/bin/bin/../../lib/gcc/pic32c/6.2.1/../../../../pic32c/lib/v7e-m/fpv4-sp/hard\libc_nano.a(lib_a-wctomb_r.o)
 .text          0x00000000        0x0 c:/program files/microchip/xc32/v2.40/bin/bin/../../lib/gcc/pic32c/6.2.1/../../../../pic32c/lib/v7e-m/fpv4-sp/hard\libc_nano.a(lib_a-ctype_.o)
 .data          0x00000000        0x0 c:/program files/microchip/xc32/v2.40/bin/bin/../../lib/gcc/pic32c/6.2.1/../../../../pic32c/lib/v7e-m/fpv4-sp/hard\libc_nano.a(lib_a-ctype_.o)
 .bss           0x00000000        0x0 c:/program files/microchip/xc32/v2.40/bin/bin/../../lib/gcc/pic32c/6.2.1/../../../../pic32c/lib/v7e-m/fpv4-sp/hard\libc_nano.a(lib_a-ctype_.o)
 .text          0x00000000        0x0 c:/program files/microchip/xc32/v2.40/bin/bin/../../lib/gcc/pic32c/6.2.1/../../../../pic32c/lib/v7e-m/fpv4-sp/hard\libpic32c.a(_close.o)
 .data          0x00000000        0x0 c:/program files/microchip/xc32/v2.40/bin/bin/../../lib/gcc/pic32c/6.2.1/../../../../pic32c/lib/v7e-m/fpv4-sp/hard\libpic32c.a(_close.o)
 .bss           0x00000000        0x0 c:/program files/microchip/xc32/v2.40/bin/bin/../../lib/gcc/pic32c/6.2.1/../../../../pic32c/lib/v7e-m/fpv4-sp/hard\libpic32c.a(_close.o)
 .text          0x00000000        0x0 c:/program files/microchip/xc32/v2.40/bin/bin/../../lib/gcc/pic32c/6.2.1/../../../../pic32c/lib/v7e-m/fpv4-sp/hard\libpic32c.a(_fstat.o)
 .data          0x00000000        0x0 c:/program files/microchip/xc32/v2.40/bin/bin/../../lib/gcc/pic32c/6.2.1/../../../../pic32c/lib/v7e-m/fpv4-sp/hard\libpic32c.a(_fstat.o)
 .bss           0x00000000        0x0 c:/program files/microchip/xc32/v2.40/bin/bin/../../lib/gcc/pic32c/6.2.1/../../../../pic32c/lib/v7e-m/fpv4-sp/hard\libpic32c.a(_fstat.o)
 .text          0x00000000        0x0 c:/program files/microchip/xc32/v2.40/bin/bin/../../lib/gcc/pic32c/6.2.1/../../../../pic32c/lib/v7e-m/fpv4-sp/hard\libpic32c.a(_isatty.o)
 .data          0x00000000        0x0 c:/program files/microchip/xc32/v2.40/bin/bin/../../lib/gcc/pic32c/6.2.1/../../../../pic32c/lib/v7e-m/fpv4-sp/hard\libpic32c.a(_isatty.o)
 .bss           0x00000000        0x0 c:/program files/microchip/xc32/v2.40/bin/bin/../../lib/gcc/pic32c/6.2.1/../../../../pic32c/lib/v7e-m/fpv4-sp/hard\libpic32c.a(_isatty.o)
 .text          0x00000000        0x0 c:/program files/microchip/xc32/v2.40/bin/bin/../../lib/gcc/pic32c/6.2.1/../../../../pic32c/lib/v7e-m/fpv4-sp/hard\libpic32c.a(_lseek.o)
 .data          0x00000000        0x0 c:/program files/microchip/xc32/v2.40/bin/bin/../../lib/gcc/pic32c/6.2.1/../../../../pic32c/lib/v7e-m/fpv4-sp/hard\libpic32c.a(_lseek.o)
 .bss           0x00000000        0x0 c:/program files/microchip/xc32/v2.40/bin/bin/../../lib/gcc/pic32c/6.2.1/../../../../pic32c/lib/v7e-m/fpv4-sp/hard\libpic32c.a(_lseek.o)
 .text          0x00000000        0x0 c:/program files/microchip/xc32/v2.40/bin/bin/../../lib/gcc/pic32c/6.2.1/../../../../pic32c/lib/v7e-m/fpv4-sp/hard\libpic32c.a(_read.o)
 .data          0x00000000        0x0 c:/program files/microchip/xc32/v2.40/bin/bin/../../lib/gcc/pic32c/6.2.1/../../../../pic32c/lib/v7e-m/fpv4-sp/hard\libpic32c.a(_read.o)
 .bss           0x00000000        0x0 c:/program files/microchip/xc32/v2.40/bin/bin/../../lib/gcc/pic32c/6.2.1/../../../../pic32c/lib/v7e-m/fpv4-sp/hard\libpic32c.a(_read.o)
 .text          0x00000000        0x0 c:/program files/microchip/xc32/v2.40/bin/bin/../../lib/gcc/pic32c/6.2.1/../../../../pic32c/lib/v7e-m/fpv4-sp/hard\libpic32c.a(sbrk.o)
 .data          0x00000000        0x0 c:/program files/microchip/xc32/v2.40/bin/bin/../../lib/gcc/pic32c/6.2.1/../../../../pic32c/lib/v7e-m/fpv4-sp/hard\libpic32c.a(sbrk.o)
 .text          0x00000000        0x0 c:/program files/microchip/xc32/v2.40/bin/bin/../../lib/gcc/pic32c/6.2.1/../../../../pic32c/lib/v7e-m/fpv4-sp/hard\libpic32c.a(_write.o)
 .data          0x00000000        0x0 c:/program files/microchip/xc32/v2.40/bin/bin/../../lib/gcc/pic32c/6.2.1/../../../../pic32c/lib/v7e-m/fpv4-sp/hard\libpic32c.a(_write.o)
 .bss           0x00000000        0x0 c:/program files/microchip/xc32/v2.40/bin/bin/../../lib/gcc/pic32c/6.2.1/../../../../pic32c/lib/v7e-m/fpv4-sp/hard\libpic32c.a(_write.o)
 .text          0x00000000        0x0 c:/program files/microchip/xc32/v2.40/bin/bin/../../lib/gcc/pic32c/6.2.1/../../../../pic32c/lib/v7e-m/fpv4-sp/hard\libpic32c.a(close.o)
 .data          0x00000000        0x0 c:/program files/microchip/xc32/v2.40/bin/bin/../../lib/gcc/pic32c/6.2.1/../../../../pic32c/lib/v7e-m/fpv4-sp/hard\libpic32c.a(close.o)
 .bss           0x00000000        0x0 c:/program files/microchip/xc32/v2.40/bin/bin/../../lib/gcc/pic32c/6.2.1/../../../../pic32c/lib/v7e-m/fpv4-sp/hard\libpic32c.a(close.o)
 .gnu.warning.closestub
                0x00000000        0x0 c:/program files/microchip/xc32/v2.40/bin/bin/../../lib/gcc/pic32c/6.2.1/../../../../pic32c/lib/v7e-m/fpv4-sp/hard\libpic32c.a(close.o)
 .text          0x00000000        0x0 c:/program files/microchip/xc32/v2.40/bin/bin/../../lib/gcc/pic32c/6.2.1/../../../../pic32c/lib/v7e-m/fpv4-sp/hard\libpic32c.a(fstat.o)
 .data          0x00000000        0x0 c:/program files/microchip/xc32/v2.40/bin/bin/../../lib/gcc/pic32c/6.2.1/../../../../pic32c/lib/v7e-m/fpv4-sp/hard\libpic32c.a(fstat.o)
 .bss           0x00000000        0x0 c:/program files/microchip/xc32/v2.40/bin/bin/../../lib/gcc/pic32c/6.2.1/../../../../pic32c/lib/v7e-m/fpv4-sp/hard\libpic32c.a(fstat.o)
 .text          0x00000000        0x0 c:/program files/microchip/xc32/v2.40/bin/bin/../../lib/gcc/pic32c/6.2.1/../../../../pic32c/lib/v7e-m/fpv4-sp/hard\libpic32c.a(isatty.o)
 .data          0x00000000        0x0 c:/program files/microchip/xc32/v2.40/bin/bin/../../lib/gcc/pic32c/6.2.1/../../../../pic32c/lib/v7e-m/fpv4-sp/hard\libpic32c.a(isatty.o)
 .bss           0x00000000        0x0 c:/program files/microchip/xc32/v2.40/bin/bin/../../lib/gcc/pic32c/6.2.1/../../../../pic32c/lib/v7e-m/fpv4-sp/hard\libpic32c.a(isatty.o)
 .text          0x00000000        0x0 c:/program files/microchip/xc32/v2.40/bin/bin/../../lib/gcc/pic32c/6.2.1/../../../../pic32c/lib/v7e-m/fpv4-sp/hard\libpic32c.a(lseek.o)
 .data          0x00000000        0x0 c:/program files/microchip/xc32/v2.40/bin/bin/../../lib/gcc/pic32c/6.2.1/../../../../pic32c/lib/v7e-m/fpv4-sp/hard\libpic32c.a(lseek.o)
 .bss           0x00000000        0x0 c:/program files/microchip/xc32/v2.40/bin/bin/../../lib/gcc/pic32c/6.2.1/../../../../pic32c/lib/v7e-m/fpv4-sp/hard\libpic32c.a(lseek.o)
 .text          0x00000000        0x0 c:/program files/microchip/xc32/v2.40/bin/bin/../../lib/gcc/pic32c/6.2.1/../../../../pic32c/lib/v7e-m/fpv4-sp/hard\libpic32c.a(read.o)
 .data          0x00000000        0x0 c:/program files/microchip/xc32/v2.40/bin/bin/../../lib/gcc/pic32c/6.2.1/../../../../pic32c/lib/v7e-m/fpv4-sp/hard\libpic32c.a(read.o)
 .bss           0x00000000        0x0 c:/program files/microchip/xc32/v2.40/bin/bin/../../lib/gcc/pic32c/6.2.1/../../../../pic32c/lib/v7e-m/fpv4-sp/hard\libpic32c.a(read.o)
 .text          0x00000000        0x0 c:/program files/microchip/xc32/v2.40/bin/bin/../../lib/gcc/pic32c/6.2.1/../../../../pic32c/lib/v7e-m/fpv4-sp/hard\libpic32c.a(write.o)
 .data          0x00000000        0x0 c:/program files/microchip/xc32/v2.40/bin/bin/../../lib/gcc/pic32c/6.2.1/../../../../pic32c/lib/v7e-m/fpv4-sp/hard\libpic32c.a(write.o)
 .bss           0x00000000        0x0 c:/program files/microchip/xc32/v2.40/bin/bin/../../lib/gcc/pic32c/6.2.1/../../../../pic32c/lib/v7e-m/fpv4-sp/hard\libpic32c.a(write.o)
 .text          0x00000000        0x0 c:/program files/microchip/xc32/v2.40/bin/bin/../../lib/gcc/pic32c/6.2.1/v7e-m/fpv4-sp/hard/crtend.o
 .data          0x00000000        0x0 c:/program files/microchip/xc32/v2.40/bin/bin/../../lib/gcc/pic32c/6.2.1/v7e-m/fpv4-sp/hard/crtend.o
 .bss           0x00000000        0x0 c:/program files/microchip/xc32/v2.40/bin/bin/../../lib/gcc/pic32c/6.2.1/v7e-m/fpv4-sp/hard/crtend.o
 .eh_frame      0x00000000        0x4 c:/program files/microchip/xc32/v2.40/bin/bin/../../lib/gcc/pic32c/6.2.1/v7e-m/fpv4-sp/hard/crtend.o
 .comment       0x00000000       0x3d c:/program files/microchip/xc32/v2.40/bin/bin/../../lib/gcc/pic32c/6.2.1/v7e-m/fpv4-sp/hard/crtend.o
 .ARM.attributes
                0x00000000       0x34 c:/program files/microchip/xc32/v2.40/bin/bin/../../lib/gcc/pic32c/6.2.1/v7e-m/fpv4-sp/hard/crtend.o
 .text          0x00000000        0x0 c:/program files/microchip/xc32/v2.40/bin/bin/../../lib/gcc/pic32c/6.2.1/v7e-m/fpv4-sp/hard/crtn.o
 .data          0x00000000        0x0 c:/program files/microchip/xc32/v2.40/bin/bin/../../lib/gcc/pic32c/6.2.1/v7e-m/fpv4-sp/hard/crtn.o
 .bss           0x00000000        0x0 c:/program files/microchip/xc32/v2.40/bin/bin/../../lib/gcc/pic32c/6.2.1/v7e-m/fpv4-sp/hard/crtn.o

Memory Configuration

Name             Origin             Length             Attributes
rom              0x00000000         0x00100000         xrl
ram              0x20000000         0x00040000         xw !r
config_00804000  0x00804000         0x00000004
config_00804004  0x00804004         0x00000004
config_00804008  0x00804008         0x00000004
*default*        0x00000000         0xffffffff

Linker script and memory map

LOAD c:/program files/microchip/xc32/v2.40/bin/bin/../../lib/gcc/pic32c/6.2.1/v7e-m/fpv4-sp/hard/crti.o
LOAD c:/program files/microchip/xc32/v2.40/bin/bin/../../lib/gcc/pic32c/6.2.1/v7e-m/fpv4-sp/hard/crtbegin.o
LOAD build/same54_xplained_pro/production/_ext/265365281/mu_bitvec.o
LOAD build/same54_xplained_pro/production/_ext/265365281/mu_list.o
LOAD build/same54_xplained_pro/production/_ext/265365281/mu_pstore.o
LOAD build/same54_xplained_pro/production/_ext/265365281/mu_queue.o
LOAD build/same54_xplained_pro/production/_ext/265365281/mu_sched.o
LOAD build/same54_xplained_pro/production/_ext/265365281/mu_spscq.o
LOAD build/same54_xplained_pro/production/_ext/265365281/mu_str.o
LOAD build/same54_xplained_pro/production/_ext/265365281/mu_substr.o
LOAD build/same54_xplained_pro/production/_ext/265365281/mu_task.o
LOAD build/same54_xplained_pro/production/_ext/265365281/mu_time.o
LOAD build/same54_xplained_pro/production/_ext/265365281/mu_version.o
LOAD build/same54_xplained_pro/production/_ext/465512950/bsp.o
LOAD build/same54_xplained_pro/production/_ext/199192420/plib_clock.o
LOAD build/same54_xplained_pro/production/_ext/560615476/plib_cmcc.o
LOAD build/same54_xplained_pro/production/_ext/18086165/plib_eic.o
LOAD build/same54_xplained_pro/production/_ext/201341906/plib_evsys.o
LOAD build/same54_xplained_pro/production/_ext/560952012/plib_nvic.o
LOAD build/same54_xplained_pro/production/_ext/392550042/plib_nvmctrl.o
LOAD build/same54_xplained_pro/production/_ext/554773095/plib_pm.o
LOAD build/same54_xplained_pro/production/_ext/561005163/plib_port.o
LOAD build/same54_xplained_pro/production/_ext/18098999/plib_rtc_timer.o
LOAD build/same54_xplained_pro/production/_ext/1547227007/plib_sercom2_usart.o
LOAD build/same54_xplained_pro/production/_ext/561100223/plib_supc.o
LOAD build/same54_xplained_pro/production/_ext/697067648/xc32_monitor.o
LOAD build/same54_xplained_pro/production/_ext/602300742/initialization.o
LOAD build/same54_xplained_pro/production/_ext/602300742/interrupts.o
LOAD build/same54_xplained_pro/production/_ext/602300742/exceptions.o
LOAD build/same54_xplained_pro/production/_ext/602300742/startup_xc32.o
LOAD build/same54_xplained_pro/production/_ext/602300742/libc_syscalls.o
LOAD build/same54_xplained_pro/production/_ext/1483874177/button_task.o
LOAD build/same54_xplained_pro/production/_ext/1483874177/idle_task.o
LOAD build/same54_xplained_pro/production/_ext/1483874177/kbd_task.o
LOAD build/same54_xplained_pro/production/_ext/1483874177/led_task.o
LOAD build/same54_xplained_pro/production/_ext/1483874177/mu_port.o
LOAD build/same54_xplained_pro/production/_ext/1483874177/screen_redraw_task.o
LOAD build/same54_xplained_pro/production/_ext/1483874177/screen_update_task.o
LOAD build/same54_xplained_pro/production/_ext/1483874177/mulib_tasker.o
LOAD build/same54_xplained_pro/production/_ext/1360937237/main.o
                0x00000001                __MPLAB_BUILD = 0x1
                0x00000200                _min_heap_size = 0x200
START GROUP
LOAD c:/program files/microchip/xc32/v2.40/bin/bin/../../lib/gcc/pic32c/6.2.1/../../../../pic32c/lib/v7e-m/fpv4-sp/hard\libpic32c.a
LOAD c:/program files/microchip/xc32/v2.40/bin/bin/../../lib/gcc/pic32c/6.2.1/v7e-m/fpv4-sp/hard\libgcc.a
LOAD c:/program files/microchip/xc32/v2.40/bin/bin/../../lib/gcc/pic32c/6.2.1/../../../../pic32c/lib/v7e-m/fpv4-sp/hard\libm_nano.a
LOAD c:/program files/microchip/xc32/v2.40/bin/bin/../../lib/gcc/pic32c/6.2.1/../../../../pic32c/lib/v7e-m/fpv4-sp/hard\libc_nano.a
END GROUP
LOAD c:/program files/microchip/xc32/v2.40/bin/bin/../../lib/gcc/pic32c/6.2.1/v7e-m/fpv4-sp/hard/crtend.o
LOAD c:/program files/microchip/xc32/v2.40/bin/bin/../../lib/gcc/pic32c/6.2.1/v7e-m/fpv4-sp/hard/crtn.o
                0x00100000                __rom_end = (ORIGIN (rom) + LENGTH (rom))
                0x20040000                __ram_end = (ORIGIN (ram) + LENGTH (ram))

.config_00804000
                0x00804000        0x4
 *(.config_00804000)
 .config_00804000
                0x00804000        0x4 build/same54_xplained_pro/production/_ext/602300742/initialization.o

.config_00804004
                0x00804004        0x4
 *(.config_00804004)
 .config_00804004
                0x00804004        0x4 build/same54_xplained_pro/production/_ext/602300742/initialization.o

.config_00804008
                0x00804008        0x4
 *(.config_00804008)
 .config_00804008
                0x00804008        0x4 build/same54_xplained_pro/production/_ext/602300742/initialization.o

.vectors        0x00000000      0x264
                0x00000000                . = ALIGN (0x4)
                0x00000000                _sfixed = .
 *(.vectors .vectors.* .vectors_default .vectors_default.*)
 .vectors       0x00000000      0x264 build/same54_xplained_pro/production/_ext/602300742/interrupts.o
                0x00000000                exception_table
 *(.isr_vector)
 *(.reset*)
 *(.after_vectors)

.text           0x00000264       0x20
                0x00000264                . = ALIGN (0x4)
 *(.glue_7t)
 .glue_7t       0x00000264        0x0 linker stubs
 *(.glue_7)
 .glue_7        0x00000264        0x0 linker stubs
 *(.gnu.linkonce.r.*)
 *(.ARM.extab* .gnu.linkonce.armextab.*)
                0x00000264                . = ALIGN (0x4)
 *(.init)
 .init          0x00000264        0x4 c:/program files/microchip/xc32/v2.40/bin/bin/../../lib/gcc/pic32c/6.2.1/v7e-m/fpv4-sp/hard/crti.o
                0x00000264                _init
 .init          0x00000268        0x8 c:/program files/microchip/xc32/v2.40/bin/bin/../../lib/gcc/pic32c/6.2.1/v7e-m/fpv4-sp/hard/crtn.o
                0x00000270                . = ALIGN (0x4)
                0x00000270                __preinit_array_start = .
 *(.preinit_array)
                0x00000270                __preinit_array_end = .
                0x00000270                . = ALIGN (0x4)
                0x00000270                __init_array_start = .
 *(SORT(.init_array.*))
 *(.init_array)
 .init_array    0x00000270        0x4 c:/program files/microchip/xc32/v2.40/bin/bin/../../lib/gcc/pic32c/6.2.1/v7e-m/fpv4-sp/hard/crtbegin.o
                0x00000274                __init_array_end = .
                0x00000274                . = ALIGN (0x4)
 *crtbegin.o(.ctors)
 *(EXCLUDE_FILE(*crtend.o) .ctors)
 *(SORT(.ctors.*))
 *crtend.o(.ctors)
                0x00000274                . = ALIGN (0x4)
 *(.fini)
 .fini          0x00000274        0x4 c:/program files/microchip/xc32/v2.40/bin/bin/../../lib/gcc/pic32c/6.2.1/v7e-m/fpv4-sp/hard/crti.o
                0x00000274                _fini
 .fini          0x00000278        0x8 c:/program files/microchip/xc32/v2.40/bin/bin/../../lib/gcc/pic32c/6.2.1/v7e-m/fpv4-sp/hard/crtn.o
                0x00000280                . = ALIGN (0x4)
                0x00000280                __fini_array_start = .
 *(.fini_array)
 .fini_array    0x00000280        0x4 c:/program files/microchip/xc32/v2.40/bin/bin/../../lib/gcc/pic32c/6.2.1/v7e-m/fpv4-sp/hard/crtbegin.o
 *(SORT(.fini_array.*))
                0x00000284                __fini_array_end = .
 *crtbegin.o(.dtors)
 *(EXCLUDE_FILE(*crtend.o) .dtors)
 *(SORT(.dtors.*))
 *crtend.o(.dtors)
                0x00000284                . = ALIGN (0x4)
                0x00000284                _efixed = .
                [!provide]                PROVIDE (__exidx_start, .)

.ARM.exidx
 *(.ARM.exidx* .gnu.linkonce.armexidx.*)
                [!provide]                PROVIDE (__exidx_end, .)
                0x00000284                . = ALIGN (0x4)
                0x00000284                _etext = .

.bss            0x20000000      0x100
                0x20000000                . = ALIGN (0x4)
                0x20000000                __bss_start__ = .
                0x20000000                _sbss = .
                0x20000000                _szero = .
 *(COMMON)
 COMMON         0x20000000       0xc0 build/same54_xplained_pro/production/_ext/18086165/plib_eic.o
                0x20000000                eicCallbackObject
 COMMON         0x200000c0        0xc build/same54_xplained_pro/production/_ext/18098999/plib_rtc_timer.o
                0x200000c0                rtcObj
 COMMON         0x200000cc       0x30 build/same54_xplained_pro/production/_ext/1547227007/plib_sercom2_usart.o
                0x200000cc                sercom2USARTObj
 COMMON         0x200000fc        0x4 c:/program files/microchip/xc32/v2.40/bin/bin/../../lib/gcc/pic32c/6.2.1/../../../../pic32c/lib/v7e-m/fpv4-sp/hard\libc_nano.a(lib_a-reent.o)
                0x200000fc                errno
                0x20000100                . = ALIGN (0x4)
                0x20000100                __bss_end__ = .
                0x20000100                _ebss = .
                0x20000100                _ezero = .
                0x20000100                . = ALIGN (0x4)
                0x20000100                _end = .
                0x2003ffff                _ram_end_ = ((ORIGIN (ram) + LENGTH (ram)) - 0x1)
OUTPUT(dist/same54_xplained_pro/production/mulib_tasker.X.production.elf elf32-littlearm)
LOAD stack
LOAD data_init

.ARM.attributes
                0x00000000       0x30
 .ARM.attributes
                0x00000000       0x22 c:/program files/microchip/xc32/v2.40/bin/bin/../../lib/gcc/pic32c/6.2.1/v7e-m/fpv4-sp/hard/crti.o
 .ARM.attributes
                0x00000022       0x34 c:/program files/microchip/xc32/v2.40/bin/bin/../../lib/gcc/pic32c/6.2.1/v7e-m/fpv4-sp/hard/crtbegin.o
 .ARM.attributes
                0x00000056       0x39 build/same54_xplained_pro/production/_ext/265365281/mu_sched.o
 .ARM.attributes
                0x0000008f       0x39 build/same54_xplained_pro/production/_ext/265365281/mu_spscq.o
 .ARM.attributes
                0x000000c8       0x39 build/same54_xplained_pro/production/_ext/265365281/mu_task.o
 .ARM.attributes
                0x00000101       0x39 build/same54_xplained_pro/production/_ext/265365281/mu_time.o
 .ARM.attributes
                0x0000013a       0x39 build/same54_xplained_pro/production/_ext/465512950/bsp.o
 .ARM.attributes
                0x00000173       0x39 build/same54_xplained_pro/production/_ext/199192420/plib_clock.o
 .ARM.attributes
                0x000001ac       0x39 build/same54_xplained_pro/production/_ext/18086165/plib_eic.o
 .ARM.attributes
                0x000001e5       0x39 build/same54_xplained_pro/production/_ext/201341906/plib_evsys.o
 .ARM.attributes
                0x0000021e       0x39 build/same54_xplained_pro/production/_ext/560952012/plib_nvic.o
 .ARM.attributes
                0x00000257       0x39 build/same54_xplained_pro/production/_ext/392550042/plib_nvmctrl.o
 .ARM.attributes
                0x00000290       0x39 build/same54_xplained_pro/production/_ext/554773095/plib_pm.o
 .ARM.attributes
                0x000002c9       0x39 build/same54_xplained_pro/production/_ext/561005163/plib_port.o
 .ARM.attributes
                0x00000302       0x39 build/same54_xplained_pro/production/_ext/18098999/plib_rtc_timer.o
 .ARM.attributes
                0x0000033b       0x39 build/same54_xplained_pro/production/_ext/1547227007/plib_sercom2_usart.o
 .ARM.attributes
                0x00000374       0x39 build/same54_xplained_pro/production/_ext/561100223/plib_supc.o
 .ARM.attributes
                0x000003ad       0x39 build/same54_xplained_pro/production/_ext/697067648/xc32_monitor.o
 .ARM.attributes
                0x000003e6       0x39 build/same54_xplained_pro/production/_ext/602300742/initialization.o
 .ARM.attributes
                0x0000041f       0x39 build/same54_xplained_pro/production/_ext/602300742/interrupts.o
 .ARM.attributes
                0x00000458       0x39 build/same54_xplained_pro/production/_ext/602300742/exceptions.o
 .ARM.attributes
                0x00000491       0x39 build/same54_xplained_pro/production/_ext/602300742/startup_xc32.o
 .ARM.attributes
                0x000004ca       0x39 build/same54_xplained_pro/production/_ext/1483874177/button_task.o
 .ARM.attributes
                0x00000503       0x39 build/same54_xplained_pro/production/_ext/1483874177/idle_task.o
 .ARM.attributes
                0x0000053c       0x39 build/same54_xplained_pro/production/_ext/1483874177/kbd_task.o
 .ARM.attributes
                0x00000575       0x39 build/same54_xplained_pro/production/_ext/1483874177/led_task.o
 .ARM.attributes
                0x000005ae       0x39 build/same54_xplained_pro/production/_ext/1483874177/mu_port.o
 .ARM.attributes
                0x000005e7       0x39 build/same54_xplained_pro/production/_ext/1483874177/screen_redraw_task.o
 .ARM.attributes
                0x00000620       0x39 build/same54_xplained_pro/production/_ext/1483874177/screen_update_task.o
 .ARM.attributes
                0x00000659       0x39 build/same54_xplained_pro/production/_ext/1483874177/mulib_tasker.o
 .ARM.attributes
                0x00000692       0x39 build/same54_xplained_pro/production/_ext/1360937237/main.o
 .ARM.attributes
                0x000006cb       0x34 c:/program files/microchip/xc32/v2.40/bin/bin/../../lib/gcc/pic32c/6.2.1/../../../../pic32c/lib/v7e-m/fpv4-sp/hard\libpic32c.a(data_init.o)
 .ARM.attributes
                0x000006ff       0x34 c:/program files/microchip/xc32/v2.40/bin/bin/../../lib/gcc/pic32c/6.2.1/../../../../pic32c/lib/v7e-m/fpv4-sp/hard\libc_nano.a(lib_a-init.o)
 .ARM.attributes
                0x00000733       0x34 c:/program files/microchip/xc32/v2.40/bin/bin/../../lib/gcc/pic32c/6.2.1/../../../../pic32c/lib/v7e-m/fpv4-sp/hard\libc_nano.a(lib_a-memmove.o)
 .ARM.attributes
                0x00000767       0x34 c:/program files/microchip/xc32/v2.40/bin/bin/../../lib/gcc/pic32c/6.2.1/../../../../pic32c/lib/v7e-m/fpv4-sp/hard\libc_nano.a(_lib_a-printf.cdnopsuxX.o)
 .ARM.attributes
                0x0000079b       0x34 c:/program files/microchip/xc32/v2.40/bin/bin/../../lib/gcc/pic32c/6.2.1/../../../../pic32c/lib/v7e-m/fpv4-sp/hard\libc_nano.a(lib_a-puts.o)
 .ARM.attributes
                0x000007cf       0x34 c:/program files/microchip/xc32/v2.40/bin/bin/../../lib/gcc/pic32c/6.2.1/../../../../pic32c/lib/v7e-m/fpv4-sp/hard\libc_nano.a(lib_a-wbuf.o)
 .ARM.attributes
                0x00000803       0x34 c:/program files/microchip/xc32/v2.40/bin/bin/../../lib/gcc/pic32c/6.2.1/../../../../pic32c/lib/v7e-m/fpv4-sp/hard\libc_nano.a(lib_a-wsetup.o)
 .ARM.attributes
                0x00000837       0x34 c:/program files/microchip/xc32/v2.40/bin/bin/../../lib/gcc/pic32c/6.2.1/../../../../pic32c/lib/v7e-m/fpv4-sp/hard\libc_nano.a(lib_a-fflush.o)
 .ARM.attributes
                0x0000086b       0x34 c:/program files/microchip/xc32/v2.40/bin/bin/../../lib/gcc/pic32c/6.2.1/../../../../pic32c/lib/v7e-m/fpv4-sp/hard\libc_nano.a(lib_a-findfp.o)
 .ARM.attributes
                0x0000089f       0x34 c:/program files/microchip/xc32/v2.40/bin/bin/../../lib/gcc/pic32c/6.2.1/../../../../pic32c/lib/v7e-m/fpv4-sp/hard\libc_nano.a(lib_a-fwalk.o)
 .ARM.attributes
                0x000008d3       0x34 c:/program files/microchip/xc32/v2.40/bin/bin/../../lib/gcc/pic32c/6.2.1/../../../../pic32c/lib/v7e-m/fpv4-sp/hard\libc_nano.a(lib_a-impure.o)
 .ARM.attributes
                0x00000907       0x34 c:/program files/microchip/xc32/v2.40/bin/bin/../../lib/gcc/pic32c/6.2.1/../../../../pic32c/lib/v7e-m/fpv4-sp/hard\libc_nano.a(lib_a-makebuf.o)
 .ARM.attributes
                0x0000093b       0x34 c:/program files/microchip/xc32/v2.40/bin/bin/../../lib/gcc/pic32c/6.2.1/../../../../pic32c/lib/v7e-m/fpv4-sp/hard\libc_nano.a(lib_a-memset.o)
 .ARM.attributes
                0x0000096f       0x34 c:/program files/microchip/xc32/v2.40/bin/bin/../../lib/gcc/pic32c/6.2.1/../../../../pic32c/lib/v7e-m/fpv4-sp/hard\libc_nano.a(lib_a-nano-freer.o)
 .ARM.attributes
                0x000009a3       0x34 c:/program files/microchip/xc32/v2.40/bin/bin/../../lib/gcc/pic32c/6.2.1/../../../../pic32c/lib/v7e-m/fpv4-sp/hard\libc_nano.a(lib_a-nano-mallocr.o)
 .ARM.attributes
                0x000009d7       0x34 c:/program files/microchip/xc32/v2.40/bin/bin/../../lib/gcc/pic32c/6.2.1/../../../../pic32c/lib/v7e-m/fpv4-sp/hard\libc_nano.a(_lib_a-nano-vfprintf.cdnopsuxX.o)
 .ARM.attributes
                0x00000a0b       0x34 c:/program files/microchip/xc32/v2.40/bin/bin/../../lib/gcc/pic32c/6.2.1/../../../../pic32c/lib/v7e-m/fpv4-sp/hard\libc_nano.a(lib_a-nano-vfprintf_i.o)
 .ARM.attributes
                0x00000a3f       0x34 c:/program files/microchip/xc32/v2.40/bin/bin/../../lib/gcc/pic32c/6.2.1/../../../../pic32c/lib/v7e-m/fpv4-sp/hard\libc_nano.a(lib_a-sbrkr.o)
 .ARM.attributes
                0x00000a73       0x34 c:/program files/microchip/xc32/v2.40/bin/bin/../../lib/gcc/pic32c/6.2.1/../../../../pic32c/lib/v7e-m/fpv4-sp/hard\libc_nano.a(lib_a-__ssfputs.o)
 .ARM.attributes
                0x00000aa7       0x34 c:/program files/microchip/xc32/v2.40/bin/bin/../../lib/gcc/pic32c/6.2.1/../../../../pic32c/lib/v7e-m/fpv4-sp/hard\libc_nano.a(lib_a-stdio.o)
 .ARM.attributes
                0x00000adb       0x34 c:/program files/microchip/xc32/v2.40/bin/bin/../../lib/gcc/pic32c/6.2.1/../../../../pic32c/lib/v7e-m/fpv4-sp/hard\libc_nano.a(lib_a-writer.o)
 .ARM.attributes
                0x00000b0f       0x34 c:/program files/microchip/xc32/v2.40/bin/bin/../../lib/gcc/pic32c/6.2.1/../../../../pic32c/lib/v7e-m/fpv4-sp/hard\libc_nano.a(lib_a-closer.o)
 .ARM.attributes
                0x00000b43       0x34 c:/program files/microchip/xc32/v2.40/bin/bin/../../lib/gcc/pic32c/6.2.1/../../../../pic32c/lib/v7e-m/fpv4-sp/hard\libc_nano.a(lib_a-fputwc.o)
 .ARM.attributes
                0x00000b77       0x34 c:/program files/microchip/xc32/v2.40/bin/bin/../../lib/gcc/pic32c/6.2.1/../../../../pic32c/lib/v7e-m/fpv4-sp/hard\libc_nano.a(lib_a-fstatr.o)
 .ARM.attributes
                0x00000bab       0x34 c:/program files/microchip/xc32/v2.40/bin/bin/../../lib/gcc/pic32c/6.2.1/../../../../pic32c/lib/v7e-m/fpv4-sp/hard\libc_nano.a(lib_a-isattyr.o)
 .ARM.attributes
                0x00000bdf       0x34 c:/program files/microchip/xc32/v2.40/bin/bin/../../lib/gcc/pic32c/6.2.1/../../../../pic32c/lib/v7e-m/fpv4-sp/hard\libc_nano.a(lib_a-locale.o)
 .ARM.attributes
                0x00000c13       0x34 c:/program files/microchip/xc32/v2.40/bin/bin/../../lib/gcc/pic32c/6.2.1/../../../../pic32c/lib/v7e-m/fpv4-sp/hard\libc_nano.a(lib_a-lseekr.o)
 .ARM.attributes
                0x00000c47       0x34 c:/program files/microchip/xc32/v2.40/bin/bin/../../lib/gcc/pic32c/6.2.1/../../../../pic32c/lib/v7e-m/fpv4-sp/hard\libc_nano.a(lib_a-mbtowc_r.o)
 .ARM.attributes
                0x00000c7b       0x20 c:/program files/microchip/xc32/v2.40/bin/bin/../../lib/gcc/pic32c/6.2.1/../../../../pic32c/lib/v7e-m/fpv4-sp/hard\libc_nano.a(lib_a-memchr.o)
 .ARM.attributes
                0x00000c9b       0x34 c:/program files/microchip/xc32/v2.40/bin/bin/../../lib/gcc/pic32c/6.2.1/../../../../pic32c/lib/v7e-m/fpv4-sp/hard\libc_nano.a(lib_a-mlock.o)
 .ARM.attributes
                0x00000ccf       0x34 c:/program files/microchip/xc32/v2.40/bin/bin/../../lib/gcc/pic32c/6.2.1/../../../../pic32c/lib/v7e-m/fpv4-sp/hard\libc_nano.a(lib_a-readr.o)
 .ARM.attributes
                0x00000d03       0x34 c:/program files/microchip/xc32/v2.40/bin/bin/../../lib/gcc/pic32c/6.2.1/../../../../pic32c/lib/v7e-m/fpv4-sp/hard\libc_nano.a(lib_a-reent.o)
 .ARM.attributes
                0x00000d37       0x34 c:/program files/microchip/xc32/v2.40/bin/bin/../../lib/gcc/pic32c/6.2.1/../../../../pic32c/lib/v7e-m/fpv4-sp/hard\libc_nano.a(lib_a-wcrtomb.o)
 .ARM.attributes
                0x00000d6b       0x34 c:/program files/microchip/xc32/v2.40/bin/bin/../../lib/gcc/pic32c/6.2.1/../../../../pic32c/lib/v7e-m/fpv4-sp/hard\libc_nano.a(lib_a-wctomb_r.o)
 .ARM.attributes
                0x00000d9f       0x34 c:/program files/microchip/xc32/v2.40/bin/bin/../../lib/gcc/pic32c/6.2.1/../../../../pic32c/lib/v7e-m/fpv4-sp/hard\libc_nano.a(lib_a-ctype_.o)
 .ARM.attributes
                0x00000dd3       0x34 c:/program files/microchip/xc32/v2.40/bin/bin/../../lib/gcc/pic32c/6.2.1/../../../../pic32c/lib/v7e-m/fpv4-sp/hard\libpic32c.a(_close.o)
 .ARM.attributes
                0x00000e07       0x34 c:/program files/microchip/xc32/v2.40/bin/bin/../../lib/gcc/pic32c/6.2.1/../../../../pic32c/lib/v7e-m/fpv4-sp/hard\libpic32c.a(_fstat.o)
 .ARM.attributes
                0x00000e3b       0x34 c:/program files/microchip/xc32/v2.40/bin/bin/../../lib/gcc/pic32c/6.2.1/../../../../pic32c/lib/v7e-m/fpv4-sp/hard\libpic32c.a(_isatty.o)
 .ARM.attributes
                0x00000e6f       0x34 c:/program files/microchip/xc32/v2.40/bin/bin/../../lib/gcc/pic32c/6.2.1/../../../../pic32c/lib/v7e-m/fpv4-sp/hard\libpic32c.a(_lseek.o)
 .ARM.attributes
                0x00000ea3       0x34 c:/program files/microchip/xc32/v2.40/bin/bin/../../lib/gcc/pic32c/6.2.1/../../../../pic32c/lib/v7e-m/fpv4-sp/hard\libpic32c.a(_read.o)
 .ARM.attributes
                0x00000ed7       0x34 c:/program files/microchip/xc32/v2.40/bin/bin/../../lib/gcc/pic32c/6.2.1/../../../../pic32c/lib/v7e-m/fpv4-sp/hard\libpic32c.a(sbrk.o)
 .ARM.attributes
                0x00000f0b       0x34 c:/program files/microchip/xc32/v2.40/bin/bin/../../lib/gcc/pic32c/6.2.1/../../../../pic32c/lib/v7e-m/fpv4-sp/hard\libpic32c.a(_write.o)
 .ARM.attributes
                0x00000f3f       0x34 c:/program files/microchip/xc32/v2.40/bin/bin/../../lib/gcc/pic32c/6.2.1/../../../../pic32c/lib/v7e-m/fpv4-sp/hard\libpic32c.a(close.o)
 .ARM.attributes
                0x00000f73       0x34 c:/program files/microchip/xc32/v2.40/bin/bin/../../lib/gcc/pic32c/6.2.1/../../../../pic32c/lib/v7e-m/fpv4-sp/hard\libpic32c.a(fstat.o)
 .ARM.attributes
                0x00000fa7       0x34 c:/program files/microchip/xc32/v2.40/bin/bin/../../lib/gcc/pic32c/6.2.1/../../../../pic32c/lib/v7e-m/fpv4-sp/hard\libpic32c.a(isatty.o)
 .ARM.attributes
                0x00000fdb       0x34 c:/program files/microchip/xc32/v2.40/bin/bin/../../lib/gcc/pic32c/6.2.1/../../../../pic32c/lib/v7e-m/fpv4-sp/hard\libpic32c.a(lseek.o)
 .ARM.attributes
                0x0000100f       0x34 c:/program files/microchip/xc32/v2.40/bin/bin/../../lib/gcc/pic32c/6.2.1/../../../../pic32c/lib/v7e-m/fpv4-sp/hard\libpic32c.a(read.o)
 .ARM.attributes
                0x00001043       0x34 c:/program files/microchip/xc32/v2.40/bin/bin/../../lib/gcc/pic32c/6.2.1/../../../../pic32c/lib/v7e-m/fpv4-sp/hard\libpic32c.a(write.o)
 .ARM.attributes
                0x00001077       0x22 c:/program files/microchip/xc32/v2.40/bin/bin/../../lib/gcc/pic32c/6.2.1/v7e-m/fpv4-sp/hard/crtn.o

.comment        0x00000000       0x3c
 .comment       0x00000000       0x3c c:/program files/microchip/xc32/v2.40/bin/bin/../../lib/gcc/pic32c/6.2.1/v7e-m/fpv4-sp/hard/crtbegin.o
                                 0x3d (size before relaxing)
 .comment       0x0000003c       0x3d build/same54_xplained_pro/production/_ext/265365281/mu_sched.o
 .comment       0x0000003c       0x3d build/same54_xplained_pro/production/_ext/265365281/mu_spscq.o
 .comment       0x0000003c       0x3d build/same54_xplained_pro/production/_ext/265365281/mu_task.o
 .comment       0x0000003c       0x3d build/same54_xplained_pro/production/_ext/265365281/mu_time.o
 .comment       0x0000003c       0x3d build/same54_xplained_pro/production/_ext/465512950/bsp.o
 .comment       0x0000003c       0x3d build/same54_xplained_pro/production/_ext/199192420/plib_clock.o
 .comment       0x0000003c       0x3d build/same54_xplained_pro/production/_ext/18086165/plib_eic.o
 .comment       0x0000003c       0x3d build/same54_xplained_pro/production/_ext/201341906/plib_evsys.o
 .comment       0x0000003c       0x3d build/same54_xplained_pro/production/_ext/560952012/plib_nvic.o
 .comment       0x0000003c       0x3d build/same54_xplained_pro/production/_ext/392550042/plib_nvmctrl.o
 .comment       0x0000003c       0x3d build/same54_xplained_pro/production/_ext/554773095/plib_pm.o
 .comment       0x0000003c       0x3d build/same54_xplained_pro/production/_ext/561005163/plib_port.o
 .comment       0x0000003c       0x3d build/same54_xplained_pro/production/_ext/18098999/plib_rtc_timer.o
 .comment       0x0000003c       0x3d build/same54_xplained_pro/production/_ext/1547227007/plib_sercom2_usart.o
 .comment       0x0000003c       0x3d build/same54_xplained_pro/production/_ext/561100223/plib_supc.o
 .comment       0x0000003c       0x3d build/same54_xplained_pro/production/_ext/697067648/xc32_monitor.o
 .comment       0x0000003c       0x3d build/same54_xplained_pro/production/_ext/602300742/initialization.o
 .comment       0x0000003c       0x3d build/same54_xplained_pro/production/_ext/602300742/interrupts.o
 .comment       0x0000003c       0x3d build/same54_xplained_pro/production/_ext/602300742/exceptions.o
 .comment       0x0000003c       0x3d build/same54_xplained_pro/production/_ext/602300742/startup_xc32.o
 .comment       0x0000003c       0x3d build/same54_xplained_pro/production/_ext/1483874177/button_task.o
 .comment       0x0000003c       0x3d build/same54_xplained_pro/production/_ext/1483874177/idle_task.o
 .comment       0x0000003c       0x3d build/same54_xplained_pro/production/_ext/1483874177/kbd_task.o
 .comment       0x0000003c       0x3d build/same54_xplained_pro/production/_ext/1483874177/led_task.o
 .comment       0x0000003c       0x3d build/same54_xplained_pro/production/_ext/1483874177/mu_port.o
 .comment       0x0000003c       0x3d build/same54_xplained_pro/production/_ext/1483874177/screen_redraw_task.o
 .comment       0x0000003c       0x3d build/same54_xplained_pro/production/_ext/1483874177/screen_update_task.o
 .comment       0x0000003c       0x3d build/same54_xplained_pro/production/_ext/1483874177/mulib_tasker.o
 .comment       0x0000003c       0x3d build/same54_xplained_pro/production/_ext/1360937237/main.o
 .comment       0x0000003c       0x3d c:/program files/microchip/xc32/v2.40/bin/bin/../../lib/gcc/pic32c/6.2.1/../../../../pic32c/lib/v7e-m/fpv4-sp/hard\libpic32c.a(data_init.o)
 .comment       0x0000003c       0x3d c:/program files/microchip/xc32/v2.40/bin/bin/../../lib/gcc/pic32c/6.2.1/../../../../pic32c/lib/v7e-m/fpv4-sp/hard\libc_nano.a(lib_a-init.o)
 .comment       0x0000003c       0x3d c:/program files/microchip/xc32/v2.40/bin/bin/../../lib/gcc/pic32c/6.2.1/../../../../pic32c/lib/v7e-m/fpv4-sp/hard\libc_nano.a(lib_a-memmove.o)
 .comment       0x0000003c       0x3d c:/program files/microchip/xc32/v2.40/bin/bin/../../lib/gcc/pic32c/6.2.1/../../../../pic32c/lib/v7e-m/fpv4-sp/hard\libc_nano.a(_lib_a-printf.cdnopsuxX.o)
 .comment       0x0000003c       0x3d c:/program files/microchip/xc32/v2.40/bin/bin/../../lib/gcc/pic32c/6.2.1/../../../../pic32c/lib/v7e-m/fpv4-sp/hard\libc_nano.a(lib_a-puts.o)
 .comment       0x0000003c       0x3d c:/program files/microchip/xc32/v2.40/bin/bin/../../lib/gcc/pic32c/6.2.1/../../../../pic32c/lib/v7e-m/fpv4-sp/hard\libc_nano.a(lib_a-wbuf.o)
 .comment       0x0000003c       0x3d c:/program files/microchip/xc32/v2.40/bin/bin/../../lib/gcc/pic32c/6.2.1/../../../../pic32c/lib/v7e-m/fpv4-sp/hard\libc_nano.a(lib_a-wsetup.o)
 .comment       0x0000003c       0x3d c:/program files/microchip/xc32/v2.40/bin/bin/../../lib/gcc/pic32c/6.2.1/../../../../pic32c/lib/v7e-m/fpv4-sp/hard\libc_nano.a(lib_a-fflush.o)
 .comment       0x0000003c       0x3d c:/program files/microchip/xc32/v2.40/bin/bin/../../lib/gcc/pic32c/6.2.1/../../../../pic32c/lib/v7e-m/fpv4-sp/hard\libc_nano.a(lib_a-findfp.o)
 .comment       0x0000003c       0x3d c:/program files/microchip/xc32/v2.40/bin/bin/../../lib/gcc/pic32c/6.2.1/../../../../pic32c/lib/v7e-m/fpv4-sp/hard\libc_nano.a(lib_a-fwalk.o)
 .comment       0x0000003c       0x3d c:/program files/microchip/xc32/v2.40/bin/bin/../../lib/gcc/pic32c/6.2.1/../../../../pic32c/lib/v7e-m/fpv4-sp/hard\libc_nano.a(lib_a-impure.o)
 .comment       0x0000003c       0x3d c:/program files/microchip/xc32/v2.40/bin/bin/../../lib/gcc/pic32c/6.2.1/../../../../pic32c/lib/v7e-m/fpv4-sp/hard\libc_nano.a(lib_a-makebuf.o)
 .comment       0x0000003c       0x3d c:/program files/microchip/xc32/v2.40/bin/bin/../../lib/gcc/pic32c/6.2.1/../../../../pic32c/lib/v7e-m/fpv4-sp/hard\libc_nano.a(lib_a-memset.o)
 .comment       0x0000003c       0x3d c:/program files/microchip/xc32/v2.40/bin/bin/../../lib/gcc/pic32c/6.2.1/../../../../pic32c/lib/v7e-m/fpv4-sp/hard\libc_nano.a(lib_a-nano-freer.o)
 .comment       0x0000003c       0x3d c:/program files/microchip/xc32/v2.40/bin/bin/../../lib/gcc/pic32c/6.2.1/../../../../pic32c/lib/v7e-m/fpv4-sp/hard\libc_nano.a(lib_a-nano-mallocr.o)
 .comment       0x0000003c       0x3d c:/program files/microchip/xc32/v2.40/bin/bin/../../lib/gcc/pic32c/6.2.1/../../../../pic32c/lib/v7e-m/fpv4-sp/hard\libc_nano.a(_lib_a-nano-vfprintf.cdnopsuxX.o)
 .comment       0x0000003c       0x3d c:/program files/microchip/xc32/v2.40/bin/bin/../../lib/gcc/pic32c/6.2.1/../../../../pic32c/lib/v7e-m/fpv4-sp/hard\libc_nano.a(lib_a-nano-vfprintf_i.o)
 .comment       0x0000003c       0x3d c:/program files/microchip/xc32/v2.40/bin/bin/../../lib/gcc/pic32c/6.2.1/../../../../pic32c/lib/v7e-m/fpv4-sp/hard\libc_nano.a(lib_a-sbrkr.o)
 .comment       0x0000003c       0x3d c:/program files/microchip/xc32/v2.40/bin/bin/../../lib/gcc/pic32c/6.2.1/../../../../pic32c/lib/v7e-m/fpv4-sp/hard\libc_nano.a(lib_a-__ssfputs.o)
 .comment       0x0000003c       0x3d c:/program files/microchip/xc32/v2.40/bin/bin/../../lib/gcc/pic32c/6.2.1/../../../../pic32c/lib/v7e-m/fpv4-sp/hard\libc_nano.a(lib_a-stdio.o)
 .comment       0x0000003c       0x3d c:/program files/microchip/xc32/v2.40/bin/bin/../../lib/gcc/pic32c/6.2.1/../../../../pic32c/lib/v7e-m/fpv4-sp/hard\libc_nano.a(lib_a-writer.o)
 .comment       0x0000003c       0x3d c:/program files/microchip/xc32/v2.40/bin/bin/../../lib/gcc/pic32c/6.2.1/../../../../pic32c/lib/v7e-m/fpv4-sp/hard\libc_nano.a(lib_a-closer.o)
 .comment       0x0000003c       0x3d c:/program files/microchip/xc32/v2.40/bin/bin/../../lib/gcc/pic32c/6.2.1/../../../../pic32c/lib/v7e-m/fpv4-sp/hard\libc_nano.a(lib_a-fputwc.o)
 .comment       0x0000003c       0x3d c:/program files/microchip/xc32/v2.40/bin/bin/../../lib/gcc/pic32c/6.2.1/../../../../pic32c/lib/v7e-m/fpv4-sp/hard\libc_nano.a(lib_a-fstatr.o)
 .comment       0x0000003c       0x3d c:/program files/microchip/xc32/v2.40/bin/bin/../../lib/gcc/pic32c/6.2.1/../../../../pic32c/lib/v7e-m/fpv4-sp/hard\libc_nano.a(lib_a-isattyr.o)
 .comment       0x0000003c       0x3d c:/program files/microchip/xc32/v2.40/bin/bin/../../lib/gcc/pic32c/6.2.1/../../../../pic32c/lib/v7e-m/fpv4-sp/hard\libc_nano.a(lib_a-locale.o)
 .comment       0x0000003c       0x3d c:/program files/microchip/xc32/v2.40/bin/bin/../../lib/gcc/pic32c/6.2.1/../../../../pic32c/lib/v7e-m/fpv4-sp/hard\libc_nano.a(lib_a-lseekr.o)
 .comment       0x0000003c       0x3d c:/program files/microchip/xc32/v2.40/bin/bin/../../lib/gcc/pic32c/6.2.1/../../../../pic32c/lib/v7e-m/fpv4-sp/hard\libc_nano.a(lib_a-mbtowc_r.o)
 .comment       0x0000003c       0x3d c:/program files/microchip/xc32/v2.40/bin/bin/../../lib/gcc/pic32c/6.2.1/../../../../pic32c/lib/v7e-m/fpv4-sp/hard\libc_nano.a(lib_a-mlock.o)
 .comment       0x0000003c       0x3d c:/program files/microchip/xc32/v2.40/bin/bin/../../lib/gcc/pic32c/6.2.1/../../../../pic32c/lib/v7e-m/fpv4-sp/hard\libc_nano.a(lib_a-readr.o)
 .comment       0x0000003c       0x3d c:/program files/microchip/xc32/v2.40/bin/bin/../../lib/gcc/pic32c/6.2.1/../../../../pic32c/lib/v7e-m/fpv4-sp/hard\libc_nano.a(lib_a-reent.o)
 .comment       0x0000003c       0x3d c:/program files/microchip/xc32/v2.40/bin/bin/../../lib/gcc/pic32c/6.2.1/../../../../pic32c/lib/v7e-m/fpv4-sp/hard\libc_nano.a(lib_a-wcrtomb.o)
 .comment       0x0000003c       0x3d c:/program files/microchip/xc32/v2.40/bin/bin/../../lib/gcc/pic32c/6.2.1/../../../../pic32c/lib/v7e-m/fpv4-sp/hard\libc_nano.a(lib_a-wctomb_r.o)
 .comment       0x0000003c       0x3d c:/program files/microchip/xc32/v2.40/bin/bin/../../lib/gcc/pic32c/6.2.1/../../../../pic32c/lib/v7e-m/fpv4-sp/hard\libc_nano.a(lib_a-ctype_.o)
 .comment       0x0000003c       0x3d c:/program files/microchip/xc32/v2.40/bin/bin/../../lib/gcc/pic32c/6.2.1/../../../../pic32c/lib/v7e-m/fpv4-sp/hard\libpic32c.a(_close.o)
 .comment       0x0000003c       0x3d c:/program files/microchip/xc32/v2.40/bin/bin/../../lib/gcc/pic32c/6.2.1/../../../../pic32c/lib/v7e-m/fpv4-sp/hard\libpic32c.a(_fstat.o)
 .comment       0x0000003c       0x3d c:/program files/microchip/xc32/v2.40/bin/bin/../../lib/gcc/pic32c/6.2.1/../../../../pic32c/lib/v7e-m/fpv4-sp/hard\libpic32c.a(_isatty.o)
 .comment       0x0000003c       0x3d c:/program files/microchip/xc32/v2.40/bin/bin/../../lib/gcc/pic32c/6.2.1/../../../../pic32c/lib/v7e-m/fpv4-sp/hard\libpic32c.a(_lseek.o)
 .comment       0x0000003c       0x3d c:/program files/microchip/xc32/v2.40/bin/bin/../../lib/gcc/pic32c/6.2.1/../../../../pic32c/lib/v7e-m/fpv4-sp/hard\libpic32c.a(_read.o)
 .comment       0x0000003c       0x3d c:/program files/microchip/xc32/v2.40/bin/bin/../../lib/gcc/pic32c/6.2.1/../../../../pic32c/lib/v7e-m/fpv4-sp/hard\libpic32c.a(sbrk.o)
 .comment       0x0000003c       0x3d c:/program files/microchip/xc32/v2.40/bin/bin/../../lib/gcc/pic32c/6.2.1/../../../../pic32c/lib/v7e-m/fpv4-sp/hard\libpic32c.a(_write.o)
 .comment       0x0000003c       0x3d c:/program files/microchip/xc32/v2.40/bin/bin/../../lib/gcc/pic32c/6.2.1/../../../../pic32c/lib/v7e-m/fpv4-sp/hard\libpic32c.a(close.o)
 .comment       0x0000003c       0x3d c:/program files/microchip/xc32/v2.40/bin/bin/../../lib/gcc/pic32c/6.2.1/../../../../pic32c/lib/v7e-m/fpv4-sp/hard\libpic32c.a(fstat.o)
 .comment       0x0000003c       0x3d c:/program files/microchip/xc32/v2.40/bin/bin/../../lib/gcc/pic32c/6.2.1/../../../../pic32c/lib/v7e-m/fpv4-sp/hard\libpic32c.a(isatty.o)
 .comment       0x0000003c       0x3d c:/program files/microchip/xc32/v2.40/bin/bin/../../lib/gcc/pic32c/6.2.1/../../../../pic32c/lib/v7e-m/fpv4-sp/hard\libpic32c.a(lseek.o)
 .comment       0x0000003c       0x3d c:/program files/microchip/xc32/v2.40/bin/bin/../../lib/gcc/pic32c/6.2.1/../../../../pic32c/lib/v7e-m/fpv4-sp/hard\libpic32c.a(read.o)
 .comment       0x0000003c       0x3d c:/program files/microchip/xc32/v2.40/bin/bin/../../lib/gcc/pic32c/6.2.1/../../../../pic32c/lib/v7e-m/fpv4-sp/hard\libpic32c.a(write.o)

.debug_info     0x00000000    0x49884
 .debug_info    0x00000000     0x221c build/same54_xplained_pro/production/_ext/265365281/mu_sched.o
 .debug_info    0x0000221c      0x621 build/same54_xplained_pro/production/_ext/265365281/mu_spscq.o
 .debug_info    0x0000283d      0x6e2 build/same54_xplained_pro/production/_ext/265365281/mu_task.o
 .debug_info    0x00002f1f      0x6f7 build/same54_xplained_pro/production/_ext/265365281/mu_time.o
 .debug_info    0x00003616     0x10f7 build/same54_xplained_pro/production/_ext/465512950/bsp.o
 .debug_info    0x0000470d      0x8cc build/same54_xplained_pro/production/_ext/199192420/plib_clock.o
 .debug_info    0x00004fd9      0x79b build/same54_xplained_pro/production/_ext/18086165/plib_eic.o
 .debug_info    0x00005774      0x38f build/same54_xplained_pro/production/_ext/201341906/plib_evsys.o
 .debug_info    0x00005b03     0x1387 build/same54_xplained_pro/production/_ext/560952012/plib_nvic.o
 .debug_info    0x00006e8a     0x1765 build/same54_xplained_pro/production/_ext/392550042/plib_nvmctrl.o
 .debug_info    0x000085ef      0x615 build/same54_xplained_pro/production/_ext/554773095/plib_pm.o
 .debug_info    0x00008c04      0x85b build/same54_xplained_pro/production/_ext/561005163/plib_port.o
 .debug_info    0x0000945f     0x1cc3 build/same54_xplained_pro/production/_ext/18098999/plib_rtc_timer.o
 .debug_info    0x0000b122     0x16d5 build/same54_xplained_pro/production/_ext/1547227007/plib_sercom2_usart.o
 .debug_info    0x0000c7f7      0x6de build/same54_xplained_pro/production/_ext/561100223/plib_supc.o
 .debug_info    0x0000ced5      0xf89 build/same54_xplained_pro/production/_ext/697067648/xc32_monitor.o
 .debug_info    0x0000de5e      0xfc0 build/same54_xplained_pro/production/_ext/602300742/initialization.o
 .debug_info    0x0000ee1e     0x223b build/same54_xplained_pro/production/_ext/602300742/interrupts.o
 .debug_info    0x00011059      0xf74 build/same54_xplained_pro/production/_ext/602300742/exceptions.o
 .debug_info    0x00011fcd     0x1464 build/same54_xplained_pro/production/_ext/602300742/startup_xc32.o
 .debug_info    0x00013431     0x142d build/same54_xplained_pro/production/_ext/1483874177/button_task.o
 .debug_info    0x0001485e     0x1c39 build/same54_xplained_pro/production/_ext/1483874177/idle_task.o
 .debug_info    0x00016497     0x1f1c build/same54_xplained_pro/production/_ext/1483874177/kbd_task.o
 .debug_info    0x000183b3     0x1590 build/same54_xplained_pro/production/_ext/1483874177/led_task.o
 .debug_info    0x00019943     0x1333 build/same54_xplained_pro/production/_ext/1483874177/mu_port.o
 .debug_info    0x0001ac76     0x168f build/same54_xplained_pro/production/_ext/1483874177/screen_redraw_task.o
 .debug_info    0x0001c305     0x1372 build/same54_xplained_pro/production/_ext/1483874177/screen_update_task.o
 .debug_info    0x0001d677     0x1a26 build/same54_xplained_pro/production/_ext/1483874177/mulib_tasker.o
 .debug_info    0x0001f09d      0xede build/same54_xplained_pro/production/_ext/1360937237/main.o
 .debug_info    0x0001ff7b      0x2a2 c:/program files/microchip/xc32/v2.40/bin/bin/../../lib/gcc/pic32c/6.2.1/../../../../pic32c/lib/v7e-m/fpv4-sp/hard\libpic32c.a(data_init.o)
 .debug_info    0x0002021d      0x41f c:/program files/microchip/xc32/v2.40/bin/bin/../../lib/gcc/pic32c/6.2.1/../../../../pic32c/lib/v7e-m/fpv4-sp/hard\libc_nano.a(lib_a-init.o)
 .debug_info    0x0002063c     0x15de c:/program files/microchip/xc32/v2.40/bin/bin/../../lib/gcc/pic32c/6.2.1/../../../../pic32c/lib/v7e-m/fpv4-sp/hard\libc_nano.a(lib_a-memmove.o)
 .debug_info    0x00021c1a      0xf07 c:/program files/microchip/xc32/v2.40/bin/bin/../../lib/gcc/pic32c/6.2.1/../../../../pic32c/lib/v7e-m/fpv4-sp/hard\libc_nano.a(_lib_a-printf.cdnopsuxX.o)
 .debug_info    0x00022b21     0x12e5 c:/program files/microchip/xc32/v2.40/bin/bin/../../lib/gcc/pic32c/6.2.1/../../../../pic32c/lib/v7e-m/fpv4-sp/hard\libc_nano.a(lib_a-puts.o)
 .debug_info    0x00023e06     0x1279 c:/program files/microchip/xc32/v2.40/bin/bin/../../lib/gcc/pic32c/6.2.1/../../../../pic32c/lib/v7e-m/fpv4-sp/hard\libc_nano.a(lib_a-wbuf.o)
 .debug_info    0x0002507f     0x11f4 c:/program files/microchip/xc32/v2.40/bin/bin/../../lib/gcc/pic32c/6.2.1/../../../../pic32c/lib/v7e-m/fpv4-sp/hard\libc_nano.a(lib_a-wsetup.o)
 .debug_info    0x00026273     0x135a c:/program files/microchip/xc32/v2.40/bin/bin/../../lib/gcc/pic32c/6.2.1/../../../../pic32c/lib/v7e-m/fpv4-sp/hard\libc_nano.a(lib_a-fflush.o)
 .debug_info    0x000275cd     0x1534 c:/program files/microchip/xc32/v2.40/bin/bin/../../lib/gcc/pic32c/6.2.1/../../../../pic32c/lib/v7e-m/fpv4-sp/hard\libc_nano.a(lib_a-findfp.o)
 .debug_info    0x00028b01     0x1263 c:/program files/microchip/xc32/v2.40/bin/bin/../../lib/gcc/pic32c/6.2.1/../../../../pic32c/lib/v7e-m/fpv4-sp/hard\libc_nano.a(lib_a-fwalk.o)
 .debug_info    0x00029d64      0xdef c:/program files/microchip/xc32/v2.40/bin/bin/../../lib/gcc/pic32c/6.2.1/../../../../pic32c/lib/v7e-m/fpv4-sp/hard\libc_nano.a(lib_a-impure.o)
 .debug_info    0x0002ab53     0x15ab c:/program files/microchip/xc32/v2.40/bin/bin/../../lib/gcc/pic32c/6.2.1/../../../../pic32c/lib/v7e-m/fpv4-sp/hard\libc_nano.a(lib_a-makebuf.o)
 .debug_info    0x0002c0fe     0x15ae c:/program files/microchip/xc32/v2.40/bin/bin/../../lib/gcc/pic32c/6.2.1/../../../../pic32c/lib/v7e-m/fpv4-sp/hard\libc_nano.a(lib_a-memset.o)
 .debug_info    0x0002d6ac     0x11c1 c:/program files/microchip/xc32/v2.40/bin/bin/../../lib/gcc/pic32c/6.2.1/../../../../pic32c/lib/v7e-m/fpv4-sp/hard\libc_nano.a(lib_a-nano-freer.o)
 .debug_info    0x0002e86d     0x1259 c:/program files/microchip/xc32/v2.40/bin/bin/../../lib/gcc/pic32c/6.2.1/../../../../pic32c/lib/v7e-m/fpv4-sp/hard\libc_nano.a(lib_a-nano-mallocr.o)
 .debug_info    0x0002fac6     0x1fc6 c:/program files/microchip/xc32/v2.40/bin/bin/../../lib/gcc/pic32c/6.2.1/../../../../pic32c/lib/v7e-m/fpv4-sp/hard\libc_nano.a(_lib_a-nano-vfprintf.cdnopsuxX.o)
 .debug_info    0x00031a8c     0x1db8 c:/program files/microchip/xc32/v2.40/bin/bin/../../lib/gcc/pic32c/6.2.1/../../../../pic32c/lib/v7e-m/fpv4-sp/hard\libc_nano.a(lib_a-nano-vfprintf_i.o)
 .debug_info    0x00033844      0xedf c:/program files/microchip/xc32/v2.40/bin/bin/../../lib/gcc/pic32c/6.2.1/../../../../pic32c/lib/v7e-m/fpv4-sp/hard\libc_nano.a(lib_a-sbrkr.o)
 .debug_info    0x00034723     0x1954 c:/program files/microchip/xc32/v2.40/bin/bin/../../lib/gcc/pic32c/6.2.1/../../../../pic32c/lib/v7e-m/fpv4-sp/hard\libc_nano.a(lib_a-__ssfputs.o)
 .debug_info    0x00036077     0x1422 c:/program files/microchip/xc32/v2.40/bin/bin/../../lib/gcc/pic32c/6.2.1/../../../../pic32c/lib/v7e-m/fpv4-sp/hard\libc_nano.a(lib_a-stdio.o)
 .debug_info    0x00037499      0xefe c:/program files/microchip/xc32/v2.40/bin/bin/../../lib/gcc/pic32c/6.2.1/../../../../pic32c/lib/v7e-m/fpv4-sp/hard\libc_nano.a(lib_a-writer.o)
 .debug_info    0x00038397      0xead c:/program files/microchip/xc32/v2.40/bin/bin/../../lib/gcc/pic32c/6.2.1/../../../../pic32c/lib/v7e-m/fpv4-sp/hard\libc_nano.a(lib_a-closer.o)
 .debug_info    0x00039244     0x139e c:/program files/microchip/xc32/v2.40/bin/bin/../../lib/gcc/pic32c/6.2.1/../../../../pic32c/lib/v7e-m/fpv4-sp/hard\libc_nano.a(lib_a-fputwc.o)
 .debug_info    0x0003a5e2     0x11a8 c:/program files/microchip/xc32/v2.40/bin/bin/../../lib/gcc/pic32c/6.2.1/../../../../pic32c/lib/v7e-m/fpv4-sp/hard\libc_nano.a(lib_a-fstatr.o)
 .debug_info    0x0003b78a      0xeba c:/program files/microchip/xc32/v2.40/bin/bin/../../lib/gcc/pic32c/6.2.1/../../../../pic32c/lib/v7e-m/fpv4-sp/hard\libc_nano.a(lib_a-isattyr.o)
 .debug_info    0x0003c644     0x189e c:/program files/microchip/xc32/v2.40/bin/bin/../../lib/gcc/pic32c/6.2.1/../../../../pic32c/lib/v7e-m/fpv4-sp/hard\libc_nano.a(lib_a-locale.o)
 .debug_info    0x0003dee2      0xee5 c:/program files/microchip/xc32/v2.40/bin/bin/../../lib/gcc/pic32c/6.2.1/../../../../pic32c/lib/v7e-m/fpv4-sp/hard\libc_nano.a(lib_a-lseekr.o)
 .debug_info    0x0003edc7     0x1782 c:/program files/microchip/xc32/v2.40/bin/bin/../../lib/gcc/pic32c/6.2.1/../../../../pic32c/lib/v7e-m/fpv4-sp/hard\libc_nano.a(lib_a-mbtowc_r.o)
 .debug_info    0x00040549      0x120 c:/program files/microchip/xc32/v2.40/bin/bin/../../lib/gcc/pic32c/6.2.1/../../../../pic32c/lib/v7e-m/fpv4-sp/hard\libc_nano.a(lib_a-memchr.o)
 .debug_info    0x00040669      0xe2c c:/program files/microchip/xc32/v2.40/bin/bin/../../lib/gcc/pic32c/6.2.1/../../../../pic32c/lib/v7e-m/fpv4-sp/hard\libc_nano.a(lib_a-mlock.o)
 .debug_info    0x00041495      0xefc c:/program files/microchip/xc32/v2.40/bin/bin/../../lib/gcc/pic32c/6.2.1/../../../../pic32c/lib/v7e-m/fpv4-sp/hard\libc_nano.a(lib_a-readr.o)
 .debug_info    0x00042391      0xfe7 c:/program files/microchip/xc32/v2.40/bin/bin/../../lib/gcc/pic32c/6.2.1/../../../../pic32c/lib/v7e-m/fpv4-sp/hard\libc_nano.a(lib_a-reent.o)
 .debug_info    0x00043378     0x175e c:/program files/microchip/xc32/v2.40/bin/bin/../../lib/gcc/pic32c/6.2.1/../../../../pic32c/lib/v7e-m/fpv4-sp/hard\libc_nano.a(lib_a-wcrtomb.o)
 .debug_info    0x00044ad6     0x174d c:/program files/microchip/xc32/v2.40/bin/bin/../../lib/gcc/pic32c/6.2.1/../../../../pic32c/lib/v7e-m/fpv4-sp/hard\libc_nano.a(lib_a-wctomb_r.o)
 .debug_info    0x00046223     0x157f c:/program files/microchip/xc32/v2.40/bin/bin/../../lib/gcc/pic32c/6.2.1/../../../../pic32c/lib/v7e-m/fpv4-sp/hard\libc_nano.a(lib_a-ctype_.o)
 .debug_info    0x000477a2      0x288 c:/program files/microchip/xc32/v2.40/bin/bin/../../lib/gcc/pic32c/6.2.1/../../../../pic32c/lib/v7e-m/fpv4-sp/hard\libpic32c.a(_close.o)
 .debug_info    0x00047a2a      0x288 c:/program files/microchip/xc32/v2.40/bin/bin/../../lib/gcc/pic32c/6.2.1/../../../../pic32c/lib/v7e-m/fpv4-sp/hard\libpic32c.a(_fstat.o)
 .debug_info    0x00047cb2      0x28a c:/program files/microchip/xc32/v2.40/bin/bin/../../lib/gcc/pic32c/6.2.1/../../../../pic32c/lib/v7e-m/fpv4-sp/hard\libpic32c.a(_isatty.o)
 .debug_info    0x00047f3c      0x288 c:/program files/microchip/xc32/v2.40/bin/bin/../../lib/gcc/pic32c/6.2.1/../../../../pic32c/lib/v7e-m/fpv4-sp/hard\libpic32c.a(_lseek.o)
 .debug_info    0x000481c4      0x286 c:/program files/microchip/xc32/v2.40/bin/bin/../../lib/gcc/pic32c/6.2.1/../../../../pic32c/lib/v7e-m/fpv4-sp/hard\libpic32c.a(_read.o)
 .debug_info    0x0004844a      0x286 c:/program files/microchip/xc32/v2.40/bin/bin/../../lib/gcc/pic32c/6.2.1/../../../../pic32c/lib/v7e-m/fpv4-sp/hard\libpic32c.a(sbrk.o)
 .debug_info    0x000486d0      0x288 c:/program files/microchip/xc32/v2.40/bin/bin/../../lib/gcc/pic32c/6.2.1/../../../../pic32c/lib/v7e-m/fpv4-sp/hard\libpic32c.a(_write.o)
 .debug_info    0x00048958      0x287 c:/program files/microchip/xc32/v2.40/bin/bin/../../lib/gcc/pic32c/6.2.1/../../../../pic32c/lib/v7e-m/fpv4-sp/hard\libpic32c.a(close.o)
 .debug_info    0x00048bdf      0x287 c:/program files/microchip/xc32/v2.40/bin/bin/../../lib/gcc/pic32c/6.2.1/../../../../pic32c/lib/v7e-m/fpv4-sp/hard\libpic32c.a(fstat.o)
 .debug_info    0x00048e66      0x289 c:/program files/microchip/xc32/v2.40/bin/bin/../../lib/gcc/pic32c/6.2.1/../../../../pic32c/lib/v7e-m/fpv4-sp/hard\libpic32c.a(isatty.o)
 .debug_info    0x000490ef      0x287 c:/program files/microchip/xc32/v2.40/bin/bin/../../lib/gcc/pic32c/6.2.1/../../../../pic32c/lib/v7e-m/fpv4-sp/hard\libpic32c.a(lseek.o)
 .debug_info    0x00049376      0x286 c:/program files/microchip/xc32/v2.40/bin/bin/../../lib/gcc/pic32c/6.2.1/../../../../pic32c/lib/v7e-m/fpv4-sp/hard\libpic32c.a(read.o)
 .debug_info    0x000495fc      0x288 c:/program files/microchip/xc32/v2.40/bin/bin/../../lib/gcc/pic32c/6.2.1/../../../../pic32c/lib/v7e-m/fpv4-sp/hard\libpic32c.a(write.o)

.debug_abbrev   0x00000000     0x797f
 .debug_abbrev  0x00000000      0x473 build/same54_xplained_pro/production/_ext/265365281/mu_sched.o
 .debug_abbrev  0x00000473      0x140 build/same54_xplained_pro/production/_ext/265365281/mu_spscq.o
 .debug_abbrev  0x000005b3      0x137 build/same54_xplained_pro/production/_ext/265365281/mu_task.o
 .debug_abbrev  0x000006ea       0xbf build/same54_xplained_pro/production/_ext/265365281/mu_time.o
 .debug_abbrev  0x000007a9      0x1a3 build/same54_xplained_pro/production/_ext/465512950/bsp.o
 .debug_abbrev  0x0000094c      0x114 build/same54_xplained_pro/production/_ext/199192420/plib_clock.o
 .debug_abbrev  0x00000a60      0x186 build/same54_xplained_pro/production/_ext/18086165/plib_eic.o
 .debug_abbrev  0x00000be6       0x5e build/same54_xplained_pro/production/_ext/201341906/plib_evsys.o
 .debug_abbrev  0x00000c44      0x186 build/same54_xplained_pro/production/_ext/560952012/plib_nvic.o
 .debug_abbrev  0x00000dca      0x2ba build/same54_xplained_pro/production/_ext/392550042/plib_nvmctrl.o
 .debug_abbrev  0x00001084       0x93 build/same54_xplained_pro/production/_ext/554773095/plib_pm.o
 .debug_abbrev  0x00001117      0x160 build/same54_xplained_pro/production/_ext/561005163/plib_port.o
 .debug_abbrev  0x00001277      0x284 build/same54_xplained_pro/production/_ext/18098999/plib_rtc_timer.o
 .debug_abbrev  0x000014fb      0x337 build/same54_xplained_pro/production/_ext/1547227007/plib_sercom2_usart.o
 .debug_abbrev  0x00001832       0xe1 build/same54_xplained_pro/production/_ext/561100223/plib_supc.o
 .debug_abbrev  0x00001913      0x20a build/same54_xplained_pro/production/_ext/697067648/xc32_monitor.o
 .debug_abbrev  0x00001b1d      0x1d6 build/same54_xplained_pro/production/_ext/602300742/initialization.o
 .debug_abbrev  0x00001cf3      0x1a7 build/same54_xplained_pro/production/_ext/602300742/interrupts.o
 .debug_abbrev  0x00001e9a      0x196 build/same54_xplained_pro/production/_ext/602300742/exceptions.o
 .debug_abbrev  0x00002030      0x269 build/same54_xplained_pro/production/_ext/602300742/startup_xc32.o
 .debug_abbrev  0x00002299      0x27c build/same54_xplained_pro/production/_ext/1483874177/button_task.o
 .debug_abbrev  0x00002515      0x313 build/same54_xplained_pro/production/_ext/1483874177/idle_task.o
 .debug_abbrev  0x00002828      0x2b0 build/same54_xplained_pro/production/_ext/1483874177/kbd_task.o
 .debug_abbrev  0x00002ad8      0x236 build/same54_xplained_pro/production/_ext/1483874177/led_task.o
 .debug_abbrev  0x00002d0e      0x28e build/same54_xplained_pro/production/_ext/1483874177/mu_port.o
 .debug_abbrev  0x00002f9c      0x2c0 build/same54_xplained_pro/production/_ext/1483874177/screen_redraw_task.o
 .debug_abbrev  0x0000325c      0x22f build/same54_xplained_pro/production/_ext/1483874177/screen_update_task.o
 .debug_abbrev  0x0000348b      0x292 build/same54_xplained_pro/production/_ext/1483874177/mulib_tasker.o
 .debug_abbrev  0x0000371d      0x1d0 build/same54_xplained_pro/production/_ext/1360937237/main.o
 .debug_abbrev  0x000038ed       0x2a c:/program files/microchip/xc32/v2.40/bin/bin/../../lib/gcc/pic32c/6.2.1/../../../../pic32c/lib/v7e-m/fpv4-sp/hard\libpic32c.a(data_init.o)
 .debug_abbrev  0x00003917       0xa3 c:/program files/microchip/xc32/v2.40/bin/bin/../../lib/gcc/pic32c/6.2.1/../../../../pic32c/lib/v7e-m/fpv4-sp/hard\libc_nano.a(lib_a-init.o)
 .debug_abbrev  0x000039ba      0x175 c:/program files/microchip/xc32/v2.40/bin/bin/../../lib/gcc/pic32c/6.2.1/../../../../pic32c/lib/v7e-m/fpv4-sp/hard\libc_nano.a(lib_a-memmove.o)
 .debug_abbrev  0x00003b2f      0x196 c:/program files/microchip/xc32/v2.40/bin/bin/../../lib/gcc/pic32c/6.2.1/../../../../pic32c/lib/v7e-m/fpv4-sp/hard\libc_nano.a(_lib_a-printf.cdnopsuxX.o)
 .debug_abbrev  0x00003cc5      0x25f c:/program files/microchip/xc32/v2.40/bin/bin/../../lib/gcc/pic32c/6.2.1/../../../../pic32c/lib/v7e-m/fpv4-sp/hard\libc_nano.a(lib_a-puts.o)
 .debug_abbrev  0x00003f24      0x216 c:/program files/microchip/xc32/v2.40/bin/bin/../../lib/gcc/pic32c/6.2.1/../../../../pic32c/lib/v7e-m/fpv4-sp/hard\libc_nano.a(lib_a-wbuf.o)
 .debug_abbrev  0x0000413a      0x1ec c:/program files/microchip/xc32/v2.40/bin/bin/../../lib/gcc/pic32c/6.2.1/../../../../pic32c/lib/v7e-m/fpv4-sp/hard\libc_nano.a(lib_a-wsetup.o)
 .debug_abbrev  0x00004326      0x29e c:/program files/microchip/xc32/v2.40/bin/bin/../../lib/gcc/pic32c/6.2.1/../../../../pic32c/lib/v7e-m/fpv4-sp/hard\libc_nano.a(lib_a-fflush.o)
 .debug_abbrev  0x000045c4      0x2b5 c:/program files/microchip/xc32/v2.40/bin/bin/../../lib/gcc/pic32c/6.2.1/../../../../pic32c/lib/v7e-m/fpv4-sp/hard\libc_nano.a(lib_a-findfp.o)
 .debug_abbrev  0x00004879      0x1ad c:/program files/microchip/xc32/v2.40/bin/bin/../../lib/gcc/pic32c/6.2.1/../../../../pic32c/lib/v7e-m/fpv4-sp/hard\libc_nano.a(lib_a-fwalk.o)
 .debug_abbrev  0x00004a26      0x131 c:/program files/microchip/xc32/v2.40/bin/bin/../../lib/gcc/pic32c/6.2.1/../../../../pic32c/lib/v7e-m/fpv4-sp/hard\libc_nano.a(lib_a-impure.o)
 .debug_abbrev  0x00004b57      0x268 c:/program files/microchip/xc32/v2.40/bin/bin/../../lib/gcc/pic32c/6.2.1/../../../../pic32c/lib/v7e-m/fpv4-sp/hard\libc_nano.a(lib_a-makebuf.o)
 .debug_abbrev  0x00004dbf      0x170 c:/program files/microchip/xc32/v2.40/bin/bin/../../lib/gcc/pic32c/6.2.1/../../../../pic32c/lib/v7e-m/fpv4-sp/hard\libc_nano.a(lib_a-memset.o)
 .debug_abbrev  0x00004f2f      0x242 c:/program files/microchip/xc32/v2.40/bin/bin/../../lib/gcc/pic32c/6.2.1/../../../../pic32c/lib/v7e-m/fpv4-sp/hard\libc_nano.a(lib_a-nano-freer.o)
 .debug_abbrev  0x00005171      0x281 c:/program files/microchip/xc32/v2.40/bin/bin/../../lib/gcc/pic32c/6.2.1/../../../../pic32c/lib/v7e-m/fpv4-sp/hard\libc_nano.a(lib_a-nano-mallocr.o)
 .debug_abbrev  0x000053f2      0x316 c:/program files/microchip/xc32/v2.40/bin/bin/../../lib/gcc/pic32c/6.2.1/../../../../pic32c/lib/v7e-m/fpv4-sp/hard\libc_nano.a(_lib_a-nano-vfprintf.cdnopsuxX.o)
 .debug_abbrev  0x00005708      0x225 c:/program files/microchip/xc32/v2.40/bin/bin/../../lib/gcc/pic32c/6.2.1/../../../../pic32c/lib/v7e-m/fpv4-sp/hard\libc_nano.a(lib_a-nano-vfprintf_i.o)
 .debug_abbrev  0x0000592d      0x1a8 c:/program files/microchip/xc32/v2.40/bin/bin/../../lib/gcc/pic32c/6.2.1/../../../../pic32c/lib/v7e-m/fpv4-sp/hard\libc_nano.a(lib_a-sbrkr.o)
 .debug_abbrev  0x00005ad5      0x1f9 c:/program files/microchip/xc32/v2.40/bin/bin/../../lib/gcc/pic32c/6.2.1/../../../../pic32c/lib/v7e-m/fpv4-sp/hard\libc_nano.a(lib_a-__ssfputs.o)
 .debug_abbrev  0x00005cce      0x23f c:/program files/microchip/xc32/v2.40/bin/bin/../../lib/gcc/pic32c/6.2.1/../../../../pic32c/lib/v7e-m/fpv4-sp/hard\libc_nano.a(lib_a-stdio.o)
 .debug_abbrev  0x00005f0d      0x198 c:/program files/microchip/xc32/v2.40/bin/bin/../../lib/gcc/pic32c/6.2.1/../../../../pic32c/lib/v7e-m/fpv4-sp/hard\libc_nano.a(lib_a-writer.o)
 .debug_abbrev  0x000060a5      0x193 c:/program files/microchip/xc32/v2.40/bin/bin/../../lib/gcc/pic32c/6.2.1/../../../../pic32c/lib/v7e-m/fpv4-sp/hard\libc_nano.a(lib_a-closer.o)
 .debug_abbrev  0x00006238      0x27f c:/program files/microchip/xc32/v2.40/bin/bin/../../lib/gcc/pic32c/6.2.1/../../../../pic32c/lib/v7e-m/fpv4-sp/hard\libc_nano.a(lib_a-fputwc.o)
 .debug_abbrev  0x000064b7      0x193 c:/program files/microchip/xc32/v2.40/bin/bin/../../lib/gcc/pic32c/6.2.1/../../../../pic32c/lib/v7e-m/fpv4-sp/hard\libc_nano.a(lib_a-fstatr.o)
 .debug_abbrev  0x0000664a      0x193 c:/program files/microchip/xc32/v2.40/bin/bin/../../lib/gcc/pic32c/6.2.1/../../../../pic32c/lib/v7e-m/fpv4-sp/hard\libc_nano.a(lib_a-isattyr.o)
 .debug_abbrev  0x000067dd      0x256 c:/program files/microchip/xc32/v2.40/bin/bin/../../lib/gcc/pic32c/6.2.1/../../../../pic32c/lib/v7e-m/fpv4-sp/hard\libc_nano.a(lib_a-locale.o)
 .debug_abbrev  0x00006a33      0x193 c:/program files/microchip/xc32/v2.40/bin/bin/../../lib/gcc/pic32c/6.2.1/../../../../pic32c/lib/v7e-m/fpv4-sp/hard\libc_nano.a(lib_a-lseekr.o)
 .debug_abbrev  0x00006bc6      0x1be c:/program files/microchip/xc32/v2.40/bin/bin/../../lib/gcc/pic32c/6.2.1/../../../../pic32c/lib/v7e-m/fpv4-sp/hard\libc_nano.a(lib_a-mbtowc_r.o)
 .debug_abbrev  0x00006d84       0x14 c:/program files/microchip/xc32/v2.40/bin/bin/../../lib/gcc/pic32c/6.2.1/../../../../pic32c/lib/v7e-m/fpv4-sp/hard\libc_nano.a(lib_a-memchr.o)
 .debug_abbrev  0x00006d98      0x165 c:/program files/microchip/xc32/v2.40/bin/bin/../../lib/gcc/pic32c/6.2.1/../../../../pic32c/lib/v7e-m/fpv4-sp/hard\libc_nano.a(lib_a-mlock.o)
 .debug_abbrev  0x00006efd      0x193 c:/program files/microchip/xc32/v2.40/bin/bin/../../lib/gcc/pic32c/6.2.1/../../../../pic32c/lib/v7e-m/fpv4-sp/hard\libc_nano.a(lib_a-readr.o)
 .debug_abbrev  0x00007090      0x1f8 c:/program files/microchip/xc32/v2.40/bin/bin/../../lib/gcc/pic32c/6.2.1/../../../../pic32c/lib/v7e-m/fpv4-sp/hard\libc_nano.a(lib_a-reent.o)
 .debug_abbrev  0x00007288      0x1dc c:/program files/microchip/xc32/v2.40/bin/bin/../../lib/gcc/pic32c/6.2.1/../../../../pic32c/lib/v7e-m/fpv4-sp/hard\libc_nano.a(lib_a-wcrtomb.o)
 .debug_abbrev  0x00007464      0x1da c:/program files/microchip/xc32/v2.40/bin/bin/../../lib/gcc/pic32c/6.2.1/../../../../pic32c/lib/v7e-m/fpv4-sp/hard\libc_nano.a(lib_a-wctomb_r.o)
 .debug_abbrev  0x0000763e      0x131 c:/program files/microchip/xc32/v2.40/bin/bin/../../lib/gcc/pic32c/6.2.1/../../../../pic32c/lib/v7e-m/fpv4-sp/hard\libc_nano.a(lib_a-ctype_.o)
 .debug_abbrev  0x0000776f       0x27 c:/program files/microchip/xc32/v2.40/bin/bin/../../lib/gcc/pic32c/6.2.1/../../../../pic32c/lib/v7e-m/fpv4-sp/hard\libpic32c.a(_close.o)
 .debug_abbrev  0x00007796       0x27 c:/program files/microchip/xc32/v2.40/bin/bin/../../lib/gcc/pic32c/6.2.1/../../../../pic32c/lib/v7e-m/fpv4-sp/hard\libpic32c.a(_fstat.o)
 .debug_abbrev  0x000077bd       0x27 c:/program files/microchip/xc32/v2.40/bin/bin/../../lib/gcc/pic32c/6.2.1/../../../../pic32c/lib/v7e-m/fpv4-sp/hard\libpic32c.a(_isatty.o)
 .debug_abbrev  0x000077e4       0x27 c:/program files/microchip/xc32/v2.40/bin/bin/../../lib/gcc/pic32c/6.2.1/../../../../pic32c/lib/v7e-m/fpv4-sp/hard\libpic32c.a(_lseek.o)
 .debug_abbrev  0x0000780b       0x27 c:/program files/microchip/xc32/v2.40/bin/bin/../../lib/gcc/pic32c/6.2.1/../../../../pic32c/lib/v7e-m/fpv4-sp/hard\libpic32c.a(_read.o)
 .debug_abbrev  0x00007832       0x2a c:/program files/microchip/xc32/v2.40/bin/bin/../../lib/gcc/pic32c/6.2.1/../../../../pic32c/lib/v7e-m/fpv4-sp/hard\libpic32c.a(sbrk.o)
 .debug_abbrev  0x0000785c       0x27 c:/program files/microchip/xc32/v2.40/bin/bin/../../lib/gcc/pic32c/6.2.1/../../../../pic32c/lib/v7e-m/fpv4-sp/hard\libpic32c.a(_write.o)
 .debug_abbrev  0x00007883       0x2a c:/program files/microchip/xc32/v2.40/bin/bin/../../lib/gcc/pic32c/6.2.1/../../../../pic32c/lib/v7e-m/fpv4-sp/hard\libpic32c.a(close.o)
 .debug_abbrev  0x000078ad       0x2a c:/program files/microchip/xc32/v2.40/bin/bin/../../lib/gcc/pic32c/6.2.1/../../../../pic32c/lib/v7e-m/fpv4-sp/hard\libpic32c.a(fstat.o)
 .debug_abbrev  0x000078d7       0x2a c:/program files/microchip/xc32/v2.40/bin/bin/../../lib/gcc/pic32c/6.2.1/../../../../pic32c/lib/v7e-m/fpv4-sp/hard\libpic32c.a(isatty.o)
 .debug_abbrev  0x00007901       0x2a c:/program files/microchip/xc32/v2.40/bin/bin/../../lib/gcc/pic32c/6.2.1/../../../../pic32c/lib/v7e-m/fpv4-sp/hard\libpic32c.a(lseek.o)
 .debug_abbrev  0x0000792b       0x2a c:/program files/microchip/xc32/v2.40/bin/bin/../../lib/gcc/pic32c/6.2.1/../../../../pic32c/lib/v7e-m/fpv4-sp/hard\libpic32c.a(read.o)
 .debug_abbrev  0x00007955       0x2a c:/program files/microchip/xc32/v2.40/bin/bin/../../lib/gcc/pic32c/6.2.1/../../../../pic32c/lib/v7e-m/fpv4-sp/hard\libpic32c.a(write.o)

.debug_loc      0x00000000     0x67a7
 .debug_loc     0x00000000      0xe45 build/same54_xplained_pro/production/_ext/265365281/mu_sched.o
 .debug_loc     0x00000e45      0x1d5 build/same54_xplained_pro/production/_ext/265365281/mu_spscq.o
 .debug_loc     0x0000101a      0x1c8 build/same54_xplained_pro/production/_ext/265365281/mu_task.o
 .debug_loc     0x000011e2      0x2a2 build/same54_xplained_pro/production/_ext/265365281/mu_time.o
 .debug_loc     0x00001484       0x9a build/same54_xplained_pro/production/_ext/18086165/plib_eic.o
 .debug_loc     0x0000151e      0x1ad build/same54_xplained_pro/production/_ext/560952012/plib_nvic.o
 .debug_loc     0x000016cb      0x42c build/same54_xplained_pro/production/_ext/392550042/plib_nvmctrl.o
 .debug_loc     0x00001af7       0x63 build/same54_xplained_pro/production/_ext/561005163/plib_port.o
 .debug_loc     0x00001b5a       0xa4 build/same54_xplained_pro/production/_ext/18098999/plib_rtc_timer.o
 .debug_loc     0x00001bfe      0x5b0 build/same54_xplained_pro/production/_ext/1547227007/plib_sercom2_usart.o
 .debug_loc     0x000021ae       0x84 build/same54_xplained_pro/production/_ext/561100223/plib_supc.o
 .debug_loc     0x00002232       0xc3 build/same54_xplained_pro/production/_ext/697067648/xc32_monitor.o
 .debug_loc     0x000022f5       0x41 build/same54_xplained_pro/production/_ext/602300742/initialization.o
 .debug_loc     0x00002336       0x34 build/same54_xplained_pro/production/_ext/602300742/startup_xc32.o
 .debug_loc     0x0000236a      0x1b0 build/same54_xplained_pro/production/_ext/1483874177/button_task.o
 .debug_loc     0x0000251a      0x1dc build/same54_xplained_pro/production/_ext/1483874177/idle_task.o
 .debug_loc     0x000026f6      0x1fd build/same54_xplained_pro/production/_ext/1483874177/kbd_task.o
 .debug_loc     0x000028f3      0x19e build/same54_xplained_pro/production/_ext/1483874177/led_task.o
 .debug_loc     0x00002a91      0x16c build/same54_xplained_pro/production/_ext/1483874177/mu_port.o
 .debug_loc     0x00002bfd      0x51e build/same54_xplained_pro/production/_ext/1483874177/screen_redraw_task.o
 .debug_loc     0x0000311b      0x14c build/same54_xplained_pro/production/_ext/1483874177/screen_update_task.o
 .debug_loc     0x00003267      0x115 build/same54_xplained_pro/production/_ext/1483874177/mulib_tasker.o
 .debug_loc     0x0000337c       0x20 build/same54_xplained_pro/production/_ext/1360937237/main.o
 .debug_loc     0x0000339c       0x74 c:/program files/microchip/xc32/v2.40/bin/bin/../../lib/gcc/pic32c/6.2.1/../../../../pic32c/lib/v7e-m/fpv4-sp/hard\libc_nano.a(lib_a-init.o)
 .debug_loc     0x00003410      0x12a c:/program files/microchip/xc32/v2.40/bin/bin/../../lib/gcc/pic32c/6.2.1/../../../../pic32c/lib/v7e-m/fpv4-sp/hard\libc_nano.a(lib_a-memmove.o)
 .debug_loc     0x0000353a       0x50 c:/program files/microchip/xc32/v2.40/bin/bin/../../lib/gcc/pic32c/6.2.1/../../../../pic32c/lib/v7e-m/fpv4-sp/hard\libc_nano.a(_lib_a-printf.cdnopsuxX.o)
 .debug_loc     0x0000358a      0x202 c:/program files/microchip/xc32/v2.40/bin/bin/../../lib/gcc/pic32c/6.2.1/../../../../pic32c/lib/v7e-m/fpv4-sp/hard\libc_nano.a(lib_a-puts.o)
 .debug_loc     0x0000378c      0x133 c:/program files/microchip/xc32/v2.40/bin/bin/../../lib/gcc/pic32c/6.2.1/../../../../pic32c/lib/v7e-m/fpv4-sp/hard\libc_nano.a(lib_a-wbuf.o)
 .debug_loc     0x000038bf       0x7a c:/program files/microchip/xc32/v2.40/bin/bin/../../lib/gcc/pic32c/6.2.1/../../../../pic32c/lib/v7e-m/fpv4-sp/hard\libc_nano.a(lib_a-wsetup.o)
 .debug_loc     0x00003939      0x2f4 c:/program files/microchip/xc32/v2.40/bin/bin/../../lib/gcc/pic32c/6.2.1/../../../../pic32c/lib/v7e-m/fpv4-sp/hard\libc_nano.a(lib_a-fflush.o)
 .debug_loc     0x00003c2d      0x228 c:/program files/microchip/xc32/v2.40/bin/bin/../../lib/gcc/pic32c/6.2.1/../../../../pic32c/lib/v7e-m/fpv4-sp/hard\libc_nano.a(lib_a-findfp.o)
 .debug_loc     0x00003e55      0x139 c:/program files/microchip/xc32/v2.40/bin/bin/../../lib/gcc/pic32c/6.2.1/../../../../pic32c/lib/v7e-m/fpv4-sp/hard\libc_nano.a(lib_a-fwalk.o)
 .debug_loc     0x00003f8e      0x254 c:/program files/microchip/xc32/v2.40/bin/bin/../../lib/gcc/pic32c/6.2.1/../../../../pic32c/lib/v7e-m/fpv4-sp/hard\libc_nano.a(lib_a-makebuf.o)
 .debug_loc     0x000041e2       0x4c c:/program files/microchip/xc32/v2.40/bin/bin/../../lib/gcc/pic32c/6.2.1/../../../../pic32c/lib/v7e-m/fpv4-sp/hard\libc_nano.a(lib_a-memset.o)
 .debug_loc     0x0000422e      0x141 c:/program files/microchip/xc32/v2.40/bin/bin/../../lib/gcc/pic32c/6.2.1/../../../../pic32c/lib/v7e-m/fpv4-sp/hard\libc_nano.a(lib_a-nano-freer.o)
 .debug_loc     0x0000436f      0x326 c:/program files/microchip/xc32/v2.40/bin/bin/../../lib/gcc/pic32c/6.2.1/../../../../pic32c/lib/v7e-m/fpv4-sp/hard\libc_nano.a(lib_a-nano-mallocr.o)
 .debug_loc     0x00004695      0x7ab c:/program files/microchip/xc32/v2.40/bin/bin/../../lib/gcc/pic32c/6.2.1/../../../../pic32c/lib/v7e-m/fpv4-sp/hard\libc_nano.a(_lib_a-nano-vfprintf.cdnopsuxX.o)
 .debug_loc     0x00004e40      0x5d7 c:/program files/microchip/xc32/v2.40/bin/bin/../../lib/gcc/pic32c/6.2.1/../../../../pic32c/lib/v7e-m/fpv4-sp/hard\libc_nano.a(lib_a-nano-vfprintf_i.o)
 .debug_loc     0x00005417       0x6d c:/program files/microchip/xc32/v2.40/bin/bin/../../lib/gcc/pic32c/6.2.1/../../../../pic32c/lib/v7e-m/fpv4-sp/hard\libc_nano.a(lib_a-sbrkr.o)
 .debug_loc     0x00005484      0x1f2 c:/program files/microchip/xc32/v2.40/bin/bin/../../lib/gcc/pic32c/6.2.1/../../../../pic32c/lib/v7e-m/fpv4-sp/hard\libc_nano.a(lib_a-__ssfputs.o)
 .debug_loc     0x00005676      0x2ef c:/program files/microchip/xc32/v2.40/bin/bin/../../lib/gcc/pic32c/6.2.1/../../../../pic32c/lib/v7e-m/fpv4-sp/hard\libc_nano.a(lib_a-stdio.o)
 .debug_loc     0x00005965       0xc5 c:/program files/microchip/xc32/v2.40/bin/bin/../../lib/gcc/pic32c/6.2.1/../../../../pic32c/lib/v7e-m/fpv4-sp/hard\libc_nano.a(lib_a-writer.o)
 .debug_loc     0x00005a2a       0x6d c:/program files/microchip/xc32/v2.40/bin/bin/../../lib/gcc/pic32c/6.2.1/../../../../pic32c/lib/v7e-m/fpv4-sp/hard\libc_nano.a(lib_a-closer.o)
 .debug_loc     0x00005a97      0x298 c:/program files/microchip/xc32/v2.40/bin/bin/../../lib/gcc/pic32c/6.2.1/../../../../pic32c/lib/v7e-m/fpv4-sp/hard\libc_nano.a(lib_a-fputwc.o)
 .debug_loc     0x00005d2f       0x99 c:/program files/microchip/xc32/v2.40/bin/bin/../../lib/gcc/pic32c/6.2.1/../../../../pic32c/lib/v7e-m/fpv4-sp/hard\libc_nano.a(lib_a-fstatr.o)
 .debug_loc     0x00005dc8       0x6d c:/program files/microchip/xc32/v2.40/bin/bin/../../lib/gcc/pic32c/6.2.1/../../../../pic32c/lib/v7e-m/fpv4-sp/hard\libc_nano.a(lib_a-isattyr.o)
 .debug_loc     0x00005e35      0x17b c:/program files/microchip/xc32/v2.40/bin/bin/../../lib/gcc/pic32c/6.2.1/../../../../pic32c/lib/v7e-m/fpv4-sp/hard\libc_nano.a(lib_a-locale.o)
 .debug_loc     0x00005fb0       0xc5 c:/program files/microchip/xc32/v2.40/bin/bin/../../lib/gcc/pic32c/6.2.1/../../../../pic32c/lib/v7e-m/fpv4-sp/hard\libc_nano.a(lib_a-lseekr.o)
 .debug_loc     0x00006075      0x229 c:/program files/microchip/xc32/v2.40/bin/bin/../../lib/gcc/pic32c/6.2.1/../../../../pic32c/lib/v7e-m/fpv4-sp/hard\libc_nano.a(lib_a-mbtowc_r.o)
 .debug_loc     0x0000629e       0xc5 c:/program files/microchip/xc32/v2.40/bin/bin/../../lib/gcc/pic32c/6.2.1/../../../../pic32c/lib/v7e-m/fpv4-sp/hard\libc_nano.a(lib_a-readr.o)
 .debug_loc     0x00006363      0x15e c:/program files/microchip/xc32/v2.40/bin/bin/../../lib/gcc/pic32c/6.2.1/../../../../pic32c/lib/v7e-m/fpv4-sp/hard\libc_nano.a(lib_a-reent.o)
 .debug_loc     0x000064c1      0x1a8 c:/program files/microchip/xc32/v2.40/bin/bin/../../lib/gcc/pic32c/6.2.1/../../../../pic32c/lib/v7e-m/fpv4-sp/hard\libc_nano.a(lib_a-wcrtomb.o)
 .debug_loc     0x00006669      0x116 c:/program files/microchip/xc32/v2.40/bin/bin/../../lib/gcc/pic32c/6.2.1/../../../../pic32c/lib/v7e-m/fpv4-sp/hard\libc_nano.a(lib_a-wctomb_r.o)
 .debug_loc     0x0000677f       0x14 c:/program files/microchip/xc32/v2.40/bin/bin/../../lib/gcc/pic32c/6.2.1/../../../../pic32c/lib/v7e-m/fpv4-sp/hard\libpic32c.a(read.o)
 .debug_loc     0x00006793       0x14 c:/program files/microchip/xc32/v2.40/bin/bin/../../lib/gcc/pic32c/6.2.1/../../../../pic32c/lib/v7e-m/fpv4-sp/hard\libpic32c.a(write.o)

.debug_aranges  0x00000000      0xf20
 .debug_aranges
                0x00000000       0xf0 build/same54_xplained_pro/production/_ext/265365281/mu_sched.o
 .debug_aranges
                0x000000f0       0x58 build/same54_xplained_pro/production/_ext/265365281/mu_spscq.o
 .debug_aranges
                0x00000148       0x48 build/same54_xplained_pro/production/_ext/265365281/mu_task.o
 .debug_aranges
                0x00000190       0x60 build/same54_xplained_pro/production/_ext/265365281/mu_time.o
 .debug_aranges
                0x000001f0       0x20 build/same54_xplained_pro/production/_ext/465512950/bsp.o
 .debug_aranges
                0x00000210       0x20 build/same54_xplained_pro/production/_ext/199192420/plib_clock.o
 .debug_aranges
                0x00000230       0x40 build/same54_xplained_pro/production/_ext/18086165/plib_eic.o
 .debug_aranges
                0x00000270       0x20 build/same54_xplained_pro/production/_ext/201341906/plib_evsys.o
 .debug_aranges
                0x00000290       0x20 build/same54_xplained_pro/production/_ext/560952012/plib_nvic.o
 .debug_aranges
                0x000002b0       0xb0 build/same54_xplained_pro/production/_ext/392550042/plib_nvmctrl.o
 .debug_aranges
                0x00000360       0x58 build/same54_xplained_pro/production/_ext/554773095/plib_pm.o
 .debug_aranges
                0x000003b8       0x60 build/same54_xplained_pro/production/_ext/561005163/plib_port.o
 .debug_aranges
                0x00000418       0xa0 build/same54_xplained_pro/production/_ext/18098999/plib_rtc_timer.o
 .debug_aranges
                0x000004b8       0x88 build/same54_xplained_pro/production/_ext/1547227007/plib_sercom2_usart.o
 .debug_aranges
                0x00000540       0x40 build/same54_xplained_pro/production/_ext/561100223/plib_supc.o
 .debug_aranges
                0x00000580       0x28 build/same54_xplained_pro/production/_ext/697067648/xc32_monitor.o
 .debug_aranges
                0x000005a8       0x20 build/same54_xplained_pro/production/_ext/602300742/initialization.o
 .debug_aranges
                0x000005c8       0x20 build/same54_xplained_pro/production/_ext/602300742/interrupts.o
 .debug_aranges
                0x000005e8       0x48 build/same54_xplained_pro/production/_ext/602300742/exceptions.o
 .debug_aranges
                0x00000630       0x20 build/same54_xplained_pro/production/_ext/602300742/startup_xc32.o
 .debug_aranges
                0x00000650       0x30 build/same54_xplained_pro/production/_ext/1483874177/button_task.o
 .debug_aranges
                0x00000680       0x30 build/same54_xplained_pro/production/_ext/1483874177/idle_task.o
 .debug_aranges
                0x000006b0       0x38 build/same54_xplained_pro/production/_ext/1483874177/kbd_task.o
 .debug_aranges
                0x000006e8       0x28 build/same54_xplained_pro/production/_ext/1483874177/led_task.o
 .debug_aranges
                0x00000710       0x70 build/same54_xplained_pro/production/_ext/1483874177/mu_port.o
 .debug_aranges
                0x00000780       0x28 build/same54_xplained_pro/production/_ext/1483874177/screen_redraw_task.o
 .debug_aranges
                0x000007a8       0x28 build/same54_xplained_pro/production/_ext/1483874177/screen_update_task.o
 .debug_aranges
                0x000007d0       0x58 build/same54_xplained_pro/production/_ext/1483874177/mulib_tasker.o
 .debug_aranges
                0x00000828       0x20 build/same54_xplained_pro/production/_ext/1360937237/main.o
 .debug_aranges
                0x00000848       0x20 c:/program files/microchip/xc32/v2.40/bin/bin/../../lib/gcc/pic32c/6.2.1/../../../../pic32c/lib/v7e-m/fpv4-sp/hard\libpic32c.a(data_init.o)
 .debug_aranges
                0x00000868       0x20 c:/program files/microchip/xc32/v2.40/bin/bin/../../lib/gcc/pic32c/6.2.1/../../../../pic32c/lib/v7e-m/fpv4-sp/hard\libc_nano.a(lib_a-init.o)
 .debug_aranges
                0x00000888       0x20 c:/program files/microchip/xc32/v2.40/bin/bin/../../lib/gcc/pic32c/6.2.1/../../../../pic32c/lib/v7e-m/fpv4-sp/hard\libc_nano.a(lib_a-memmove.o)
 .debug_aranges
                0x000008a8       0x20 c:/program files/microchip/xc32/v2.40/bin/bin/../../lib/gcc/pic32c/6.2.1/../../../../pic32c/lib/v7e-m/fpv4-sp/hard\libc_nano.a(_lib_a-printf.cdnopsuxX.o)
 .debug_aranges
                0x000008c8       0x28 c:/program files/microchip/xc32/v2.40/bin/bin/../../lib/gcc/pic32c/6.2.1/../../../../pic32c/lib/v7e-m/fpv4-sp/hard\libc_nano.a(lib_a-puts.o)
 .debug_aranges
                0x000008f0       0x28 c:/program files/microchip/xc32/v2.40/bin/bin/../../lib/gcc/pic32c/6.2.1/../../../../pic32c/lib/v7e-m/fpv4-sp/hard\libc_nano.a(lib_a-wbuf.o)
 .debug_aranges
                0x00000918       0x20 c:/program files/microchip/xc32/v2.40/bin/bin/../../lib/gcc/pic32c/6.2.1/../../../../pic32c/lib/v7e-m/fpv4-sp/hard\libc_nano.a(lib_a-wsetup.o)
 .debug_aranges
                0x00000938       0x30 c:/program files/microchip/xc32/v2.40/bin/bin/../../lib/gcc/pic32c/6.2.1/../../../../pic32c/lib/v7e-m/fpv4-sp/hard\libc_nano.a(lib_a-fflush.o)
 .debug_aranges
                0x00000968       0x48 c:/program files/microchip/xc32/v2.40/bin/bin/../../lib/gcc/pic32c/6.2.1/../../../../pic32c/lib/v7e-m/fpv4-sp/hard\libc_nano.a(lib_a-findfp.o)
 .debug_aranges
                0x000009b0       0x28 c:/program files/microchip/xc32/v2.40/bin/bin/../../lib/gcc/pic32c/6.2.1/../../../../pic32c/lib/v7e-m/fpv4-sp/hard\libc_nano.a(lib_a-fwalk.o)
 .debug_aranges
                0x000009d8       0x18 c:/program files/microchip/xc32/v2.40/bin/bin/../../lib/gcc/pic32c/6.2.1/../../../../pic32c/lib/v7e-m/fpv4-sp/hard\libc_nano.a(lib_a-impure.o)
 .debug_aranges
                0x000009f0       0x28 c:/program files/microchip/xc32/v2.40/bin/bin/../../lib/gcc/pic32c/6.2.1/../../../../pic32c/lib/v7e-m/fpv4-sp/hard\libc_nano.a(lib_a-makebuf.o)
 .debug_aranges
                0x00000a18       0x20 c:/program files/microchip/xc32/v2.40/bin/bin/../../lib/gcc/pic32c/6.2.1/../../../../pic32c/lib/v7e-m/fpv4-sp/hard\libc_nano.a(lib_a-memset.o)
 .debug_aranges
                0x00000a38       0x20 c:/program files/microchip/xc32/v2.40/bin/bin/../../lib/gcc/pic32c/6.2.1/../../../../pic32c/lib/v7e-m/fpv4-sp/hard\libc_nano.a(lib_a-nano-freer.o)
 .debug_aranges
                0x00000a58       0x20 c:/program files/microchip/xc32/v2.40/bin/bin/../../lib/gcc/pic32c/6.2.1/../../../../pic32c/lib/v7e-m/fpv4-sp/hard\libc_nano.a(lib_a-nano-mallocr.o)
 .debug_aranges
                0x00000a78       0x30 c:/program files/microchip/xc32/v2.40/bin/bin/../../lib/gcc/pic32c/6.2.1/../../../../pic32c/lib/v7e-m/fpv4-sp/hard\libc_nano.a(_lib_a-nano-vfprintf.cdnopsuxX.o)
 .debug_aranges
                0x00000aa8       0x28 c:/program files/microchip/xc32/v2.40/bin/bin/../../lib/gcc/pic32c/6.2.1/../../../../pic32c/lib/v7e-m/fpv4-sp/hard\libc_nano.a(lib_a-nano-vfprintf_i.o)
 .debug_aranges
                0x00000ad0       0x20 c:/program files/microchip/xc32/v2.40/bin/bin/../../lib/gcc/pic32c/6.2.1/../../../../pic32c/lib/v7e-m/fpv4-sp/hard\libc_nano.a(lib_a-sbrkr.o)
 .debug_aranges
                0x00000af0       0x28 c:/program files/microchip/xc32/v2.40/bin/bin/../../lib/gcc/pic32c/6.2.1/../../../../pic32c/lib/v7e-m/fpv4-sp/hard\libc_nano.a(lib_a-__ssfputs.o)
 .debug_aranges
                0x00000b18       0x40 c:/program files/microchip/xc32/v2.40/bin/bin/../../lib/gcc/pic32c/6.2.1/../../../../pic32c/lib/v7e-m/fpv4-sp/hard\libc_nano.a(lib_a-stdio.o)
 .debug_aranges
                0x00000b58       0x20 c:/program files/microchip/xc32/v2.40/bin/bin/../../lib/gcc/pic32c/6.2.1/../../../../pic32c/lib/v7e-m/fpv4-sp/hard\libc_nano.a(lib_a-writer.o)
 .debug_aranges
                0x00000b78       0x20 c:/program files/microchip/xc32/v2.40/bin/bin/../../lib/gcc/pic32c/6.2.1/../../../../pic32c/lib/v7e-m/fpv4-sp/hard\libc_nano.a(lib_a-closer.o)
 .debug_aranges
                0x00000b98       0x30 c:/program files/microchip/xc32/v2.40/bin/bin/../../lib/gcc/pic32c/6.2.1/../../../../pic32c/lib/v7e-m/fpv4-sp/hard\libc_nano.a(lib_a-fputwc.o)
 .debug_aranges
                0x00000bc8       0x20 c:/program files/microchip/xc32/v2.40/bin/bin/../../lib/gcc/pic32c/6.2.1/../../../../pic32c/lib/v7e-m/fpv4-sp/hard\libc_nano.a(lib_a-fstatr.o)
 .debug_aranges
                0x00000be8       0x20 c:/program files/microchip/xc32/v2.40/bin/bin/../../lib/gcc/pic32c/6.2.1/../../../../pic32c/lib/v7e-m/fpv4-sp/hard\libc_nano.a(lib_a-isattyr.o)
 .debug_aranges
                0x00000c08       0x40 c:/program files/microchip/xc32/v2.40/bin/bin/../../lib/gcc/pic32c/6.2.1/../../../../pic32c/lib/v7e-m/fpv4-sp/hard\libc_nano.a(lib_a-locale.o)
 .debug_aranges
                0x00000c48       0x20 c:/program files/microchip/xc32/v2.40/bin/bin/../../lib/gcc/pic32c/6.2.1/../../../../pic32c/lib/v7e-m/fpv4-sp/hard\libc_nano.a(lib_a-lseekr.o)
 .debug_aranges
                0x00000c68       0x28 c:/program files/microchip/xc32/v2.40/bin/bin/../../lib/gcc/pic32c/6.2.1/../../../../pic32c/lib/v7e-m/fpv4-sp/hard\libc_nano.a(lib_a-mbtowc_r.o)
 .debug_aranges
                0x00000c90       0x20 c:/program files/microchip/xc32/v2.40/bin/bin/../../lib/gcc/pic32c/6.2.1/../../../../pic32c/lib/v7e-m/fpv4-sp/hard\libc_nano.a(lib_a-memchr.o)
 .debug_aranges
                0x00000cb0       0x20 c:/program files/microchip/xc32/v2.40/bin/bin/../../lib/gcc/pic32c/6.2.1/../../../../pic32c/lib/v7e-m/fpv4-sp/hard\libc_nano.a(lib_a-mlock.o)
 .debug_aranges
                0x00000cd0       0x20 c:/program files/microchip/xc32/v2.40/bin/bin/../../lib/gcc/pic32c/6.2.1/../../../../pic32c/lib/v7e-m/fpv4-sp/hard\libc_nano.a(lib_a-readr.o)
 .debug_aranges
                0x00000cf0       0x28 c:/program files/microchip/xc32/v2.40/bin/bin/../../lib/gcc/pic32c/6.2.1/../../../../pic32c/lib/v7e-m/fpv4-sp/hard\libc_nano.a(lib_a-reent.o)
 .debug_aranges
                0x00000d18       0x28 c:/program files/microchip/xc32/v2.40/bin/bin/../../lib/gcc/pic32c/6.2.1/../../../../pic32c/lib/v7e-m/fpv4-sp/hard\libc_nano.a(lib_a-wcrtomb.o)
 .debug_aranges
                0x00000d40       0x28 c:/program files/microchip/xc32/v2.40/bin/bin/../../lib/gcc/pic32c/6.2.1/../../../../pic32c/lib/v7e-m/fpv4-sp/hard\libc_nano.a(lib_a-wctomb_r.o)
 .debug_aranges
                0x00000d68       0x18 c:/program files/microchip/xc32/v2.40/bin/bin/../../lib/gcc/pic32c/6.2.1/../../../../pic32c/lib/v7e-m/fpv4-sp/hard\libc_nano.a(lib_a-ctype_.o)
 .debug_aranges
                0x00000d80       0x20 c:/program files/microchip/xc32/v2.40/bin/bin/../../lib/gcc/pic32c/6.2.1/../../../../pic32c/lib/v7e-m/fpv4-sp/hard\libpic32c.a(_close.o)
 .debug_aranges
                0x00000da0       0x20 c:/program files/microchip/xc32/v2.40/bin/bin/../../lib/gcc/pic32c/6.2.1/../../../../pic32c/lib/v7e-m/fpv4-sp/hard\libpic32c.a(_fstat.o)
 .debug_aranges
                0x00000dc0       0x20 c:/program files/microchip/xc32/v2.40/bin/bin/../../lib/gcc/pic32c/6.2.1/../../../../pic32c/lib/v7e-m/fpv4-sp/hard\libpic32c.a(_isatty.o)
 .debug_aranges
                0x00000de0       0x20 c:/program files/microchip/xc32/v2.40/bin/bin/../../lib/gcc/pic32c/6.2.1/../../../../pic32c/lib/v7e-m/fpv4-sp/hard\libpic32c.a(_lseek.o)
 .debug_aranges
                0x00000e00       0x20 c:/program files/microchip/xc32/v2.40/bin/bin/../../lib/gcc/pic32c/6.2.1/../../../../pic32c/lib/v7e-m/fpv4-sp/hard\libpic32c.a(_read.o)
 .debug_aranges
                0x00000e20       0x20 c:/program files/microchip/xc32/v2.40/bin/bin/../../lib/gcc/pic32c/6.2.1/../../../../pic32c/lib/v7e-m/fpv4-sp/hard\libpic32c.a(sbrk.o)
 .debug_aranges
                0x00000e40       0x20 c:/program files/microchip/xc32/v2.40/bin/bin/../../lib/gcc/pic32c/6.2.1/../../../../pic32c/lib/v7e-m/fpv4-sp/hard\libpic32c.a(_write.o)
 .debug_aranges
                0x00000e60       0x20 c:/program files/microchip/xc32/v2.40/bin/bin/../../lib/gcc/pic32c/6.2.1/../../../../pic32c/lib/v7e-m/fpv4-sp/hard\libpic32c.a(close.o)
 .debug_aranges
                0x00000e80       0x20 c:/program files/microchip/xc32/v2.40/bin/bin/../../lib/gcc/pic32c/6.2.1/../../../../pic32c/lib/v7e-m/fpv4-sp/hard\libpic32c.a(fstat.o)
 .debug_aranges
                0x00000ea0       0x20 c:/program files/microchip/xc32/v2.40/bin/bin/../../lib/gcc/pic32c/6.2.1/../../../../pic32c/lib/v7e-m/fpv4-sp/hard\libpic32c.a(isatty.o)
 .debug_aranges
                0x00000ec0       0x20 c:/program files/microchip/xc32/v2.40/bin/bin/../../lib/gcc/pic32c/6.2.1/../../../../pic32c/lib/v7e-m/fpv4-sp/hard\libpic32c.a(lseek.o)
 .debug_aranges
                0x00000ee0       0x20 c:/program files/microchip/xc32/v2.40/bin/bin/../../lib/gcc/pic32c/6.2.1/../../../../pic32c/lib/v7e-m/fpv4-sp/hard\libpic32c.a(read.o)
 .debug_aranges
                0x00000f00       0x20 c:/program files/microchip/xc32/v2.40/bin/bin/../../lib/gcc/pic32c/6.2.1/../../../../pic32c/lib/v7e-m/fpv4-sp/hard\libpic32c.a(write.o)

.debug_ranges   0x00000000      0xdd0
 .debug_ranges  0x00000000      0x110 build/same54_xplained_pro/production/_ext/265365281/mu_sched.o
 .debug_ranges  0x00000110       0x48 build/same54_xplained_pro/production/_ext/265365281/mu_spscq.o
 .debug_ranges  0x00000158       0x38 build/same54_xplained_pro/production/_ext/265365281/mu_task.o
 .debug_ranges  0x00000190       0x50 build/same54_xplained_pro/production/_ext/265365281/mu_time.o
 .debug_ranges  0x000001e0       0x10 build/same54_xplained_pro/production/_ext/465512950/bsp.o
 .debug_ranges  0x000001f0       0x10 build/same54_xplained_pro/production/_ext/199192420/plib_clock.o
 .debug_ranges  0x00000200       0x30 build/same54_xplained_pro/production/_ext/18086165/plib_eic.o
 .debug_ranges  0x00000230       0x10 build/same54_xplained_pro/production/_ext/201341906/plib_evsys.o
 .debug_ranges  0x00000240       0x10 build/same54_xplained_pro/production/_ext/560952012/plib_nvic.o
 .debug_ranges  0x00000250       0xa0 build/same54_xplained_pro/production/_ext/392550042/plib_nvmctrl.o
 .debug_ranges  0x000002f0       0x48 build/same54_xplained_pro/production/_ext/554773095/plib_pm.o
 .debug_ranges  0x00000338       0x50 build/same54_xplained_pro/production/_ext/561005163/plib_port.o
 .debug_ranges  0x00000388       0x90 build/same54_xplained_pro/production/_ext/18098999/plib_rtc_timer.o
 .debug_ranges  0x00000418       0x78 build/same54_xplained_pro/production/_ext/1547227007/plib_sercom2_usart.o
 .debug_ranges  0x00000490       0x30 build/same54_xplained_pro/production/_ext/561100223/plib_supc.o
 .debug_ranges  0x000004c0       0x18 build/same54_xplained_pro/production/_ext/697067648/xc32_monitor.o
 .debug_ranges  0x000004d8       0x10 build/same54_xplained_pro/production/_ext/602300742/initialization.o
 .debug_ranges  0x000004e8       0x10 build/same54_xplained_pro/production/_ext/602300742/interrupts.o
 .debug_ranges  0x000004f8       0x38 build/same54_xplained_pro/production/_ext/602300742/exceptions.o
 .debug_ranges  0x00000530       0x10 build/same54_xplained_pro/production/_ext/602300742/startup_xc32.o
 .debug_ranges  0x00000540       0x20 build/same54_xplained_pro/production/_ext/1483874177/button_task.o
 .debug_ranges  0x00000560       0x68 build/same54_xplained_pro/production/_ext/1483874177/idle_task.o
 .debug_ranges  0x000005c8       0x28 build/same54_xplained_pro/production/_ext/1483874177/kbd_task.o
 .debug_ranges  0x000005f0       0x18 build/same54_xplained_pro/production/_ext/1483874177/led_task.o
 .debug_ranges  0x00000608       0x60 build/same54_xplained_pro/production/_ext/1483874177/mu_port.o
 .debug_ranges  0x00000668       0x18 build/same54_xplained_pro/production/_ext/1483874177/screen_redraw_task.o
 .debug_ranges  0x00000680       0x18 build/same54_xplained_pro/production/_ext/1483874177/screen_update_task.o
 .debug_ranges  0x00000698       0x48 build/same54_xplained_pro/production/_ext/1483874177/mulib_tasker.o
 .debug_ranges  0x000006e0       0x10 build/same54_xplained_pro/production/_ext/1360937237/main.o
 .debug_ranges  0x000006f0       0x10 c:/program files/microchip/xc32/v2.40/bin/bin/../../lib/gcc/pic32c/6.2.1/../../../../pic32c/lib/v7e-m/fpv4-sp/hard\libpic32c.a(data_init.o)
 .debug_ranges  0x00000700       0x10 c:/program files/microchip/xc32/v2.40/bin/bin/../../lib/gcc/pic32c/6.2.1/../../../../pic32c/lib/v7e-m/fpv4-sp/hard\libc_nano.a(lib_a-init.o)
 .debug_ranges  0x00000710       0x10 c:/program files/microchip/xc32/v2.40/bin/bin/../../lib/gcc/pic32c/6.2.1/../../../../pic32c/lib/v7e-m/fpv4-sp/hard\libc_nano.a(lib_a-memmove.o)
 .debug_ranges  0x00000720       0x10 c:/program files/microchip/xc32/v2.40/bin/bin/../../lib/gcc/pic32c/6.2.1/../../../../pic32c/lib/v7e-m/fpv4-sp/hard\libc_nano.a(_lib_a-printf.cdnopsuxX.o)
 .debug_ranges  0x00000730       0x68 c:/program files/microchip/xc32/v2.40/bin/bin/../../lib/gcc/pic32c/6.2.1/../../../../pic32c/lib/v7e-m/fpv4-sp/hard\libc_nano.a(lib_a-puts.o)
 .debug_ranges  0x00000798       0x30 c:/program files/microchip/xc32/v2.40/bin/bin/../../lib/gcc/pic32c/6.2.1/../../../../pic32c/lib/v7e-m/fpv4-sp/hard\libc_nano.a(lib_a-wbuf.o)
 .debug_ranges  0x000007c8       0x38 c:/program files/microchip/xc32/v2.40/bin/bin/../../lib/gcc/pic32c/6.2.1/../../../../pic32c/lib/v7e-m/fpv4-sp/hard\libc_nano.a(lib_a-wsetup.o)
 .debug_ranges  0x00000800       0x68 c:/program files/microchip/xc32/v2.40/bin/bin/../../lib/gcc/pic32c/6.2.1/../../../../pic32c/lib/v7e-m/fpv4-sp/hard\libc_nano.a(lib_a-fflush.o)
 .debug_ranges  0x00000868       0x38 c:/program files/microchip/xc32/v2.40/bin/bin/../../lib/gcc/pic32c/6.2.1/../../../../pic32c/lib/v7e-m/fpv4-sp/hard\libc_nano.a(lib_a-findfp.o)
 .debug_ranges  0x000008a0       0x18 c:/program files/microchip/xc32/v2.40/bin/bin/../../lib/gcc/pic32c/6.2.1/../../../../pic32c/lib/v7e-m/fpv4-sp/hard\libc_nano.a(lib_a-fwalk.o)
 .debug_ranges  0x000008b8       0x30 c:/program files/microchip/xc32/v2.40/bin/bin/../../lib/gcc/pic32c/6.2.1/../../../../pic32c/lib/v7e-m/fpv4-sp/hard\libc_nano.a(lib_a-makebuf.o)
 .debug_ranges  0x000008e8       0x10 c:/program files/microchip/xc32/v2.40/bin/bin/../../lib/gcc/pic32c/6.2.1/../../../../pic32c/lib/v7e-m/fpv4-sp/hard\libc_nano.a(lib_a-memset.o)
 .debug_ranges  0x000008f8       0x10 c:/program files/microchip/xc32/v2.40/bin/bin/../../lib/gcc/pic32c/6.2.1/../../../../pic32c/lib/v7e-m/fpv4-sp/hard\libc_nano.a(lib_a-nano-freer.o)
 .debug_ranges  0x00000908       0x58 c:/program files/microchip/xc32/v2.40/bin/bin/../../lib/gcc/pic32c/6.2.1/../../../../pic32c/lib/v7e-m/fpv4-sp/hard\libc_nano.a(lib_a-nano-mallocr.o)
 .debug_ranges  0x00000960       0xe0 c:/program files/microchip/xc32/v2.40/bin/bin/../../lib/gcc/pic32c/6.2.1/../../../../pic32c/lib/v7e-m/fpv4-sp/hard\libc_nano.a(_lib_a-nano-vfprintf.cdnopsuxX.o)
 .debug_ranges  0x00000a40       0xc8 c:/program files/microchip/xc32/v2.40/bin/bin/../../lib/gcc/pic32c/6.2.1/../../../../pic32c/lib/v7e-m/fpv4-sp/hard\libc_nano.a(lib_a-nano-vfprintf_i.o)
 .debug_ranges  0x00000b08       0x10 c:/program files/microchip/xc32/v2.40/bin/bin/../../lib/gcc/pic32c/6.2.1/../../../../pic32c/lib/v7e-m/fpv4-sp/hard\libc_nano.a(lib_a-sbrkr.o)
 .debug_ranges  0x00000b18       0x30 c:/program files/microchip/xc32/v2.40/bin/bin/../../lib/gcc/pic32c/6.2.1/../../../../pic32c/lib/v7e-m/fpv4-sp/hard\libc_nano.a(lib_a-__ssfputs.o)
 .debug_ranges  0x00000b48       0x30 c:/program files/microchip/xc32/v2.40/bin/bin/../../lib/gcc/pic32c/6.2.1/../../../../pic32c/lib/v7e-m/fpv4-sp/hard\libc_nano.a(lib_a-stdio.o)
 .debug_ranges  0x00000b78       0x10 c:/program files/microchip/xc32/v2.40/bin/bin/../../lib/gcc/pic32c/6.2.1/../../../../pic32c/lib/v7e-m/fpv4-sp/hard\libc_nano.a(lib_a-writer.o)
 .debug_ranges  0x00000b88       0x10 c:/program files/microchip/xc32/v2.40/bin/bin/../../lib/gcc/pic32c/6.2.1/../../../../pic32c/lib/v7e-m/fpv4-sp/hard\libc_nano.a(lib_a-closer.o)
 .debug_ranges  0x00000b98       0x58 c:/program files/microchip/xc32/v2.40/bin/bin/../../lib/gcc/pic32c/6.2.1/../../../../pic32c/lib/v7e-m/fpv4-sp/hard\libc_nano.a(lib_a-fputwc.o)
 .debug_ranges  0x00000bf0       0x10 c:/program files/microchip/xc32/v2.40/bin/bin/../../lib/gcc/pic32c/6.2.1/../../../../pic32c/lib/v7e-m/fpv4-sp/hard\libc_nano.a(lib_a-fstatr.o)
 .debug_ranges  0x00000c00       0x10 c:/program files/microchip/xc32/v2.40/bin/bin/../../lib/gcc/pic32c/6.2.1/../../../../pic32c/lib/v7e-m/fpv4-sp/hard\libc_nano.a(lib_a-isattyr.o)
 .debug_ranges  0x00000c10       0x30 c:/program files/microchip/xc32/v2.40/bin/bin/../../lib/gcc/pic32c/6.2.1/../../../../pic32c/lib/v7e-m/fpv4-sp/hard\libc_nano.a(lib_a-locale.o)
 .debug_ranges  0x00000c40       0x10 c:/program files/microchip/xc32/v2.40/bin/bin/../../lib/gcc/pic32c/6.2.1/../../../../pic32c/lib/v7e-m/fpv4-sp/hard\libc_nano.a(lib_a-lseekr.o)
 .debug_ranges  0x00000c50       0x18 c:/program files/microchip/xc32/v2.40/bin/bin/../../lib/gcc/pic32c/6.2.1/../../../../pic32c/lib/v7e-m/fpv4-sp/hard\libc_nano.a(lib_a-mbtowc_r.o)
 .debug_ranges  0x00000c68       0x10 c:/program files/microchip/xc32/v2.40/bin/bin/../../lib/gcc/pic32c/6.2.1/../../../../pic32c/lib/v7e-m/fpv4-sp/hard\libc_nano.a(lib_a-mlock.o)
 .debug_ranges  0x00000c78       0x10 c:/program files/microchip/xc32/v2.40/bin/bin/../../lib/gcc/pic32c/6.2.1/../../../../pic32c/lib/v7e-m/fpv4-sp/hard\libc_nano.a(lib_a-readr.o)
 .debug_ranges  0x00000c88       0x48 c:/program files/microchip/xc32/v2.40/bin/bin/../../lib/gcc/pic32c/6.2.1/../../../../pic32c/lib/v7e-m/fpv4-sp/hard\libc_nano.a(lib_a-reent.o)
 .debug_ranges  0x00000cd0       0x18 c:/program files/microchip/xc32/v2.40/bin/bin/../../lib/gcc/pic32c/6.2.1/../../../../pic32c/lib/v7e-m/fpv4-sp/hard\libc_nano.a(lib_a-wcrtomb.o)
 .debug_ranges  0x00000ce8       0x18 c:/program files/microchip/xc32/v2.40/bin/bin/../../lib/gcc/pic32c/6.2.1/../../../../pic32c/lib/v7e-m/fpv4-sp/hard\libc_nano.a(lib_a-wctomb_r.o)
 .debug_ranges  0x00000d00       0x10 c:/program files/microchip/xc32/v2.40/bin/bin/../../lib/gcc/pic32c/6.2.1/../../../../pic32c/lib/v7e-m/fpv4-sp/hard\libpic32c.a(_close.o)
 .debug_ranges  0x00000d10       0x10 c:/program files/microchip/xc32/v2.40/bin/bin/../../lib/gcc/pic32c/6.2.1/../../../../pic32c/lib/v7e-m/fpv4-sp/hard\libpic32c.a(_fstat.o)
 .debug_ranges  0x00000d20       0x10 c:/program files/microchip/xc32/v2.40/bin/bin/../../lib/gcc/pic32c/6.2.1/../../../../pic32c/lib/v7e-m/fpv4-sp/hard\libpic32c.a(_isatty.o)
 .debug_ranges  0x00000d30       0x10 c:/program files/microchip/xc32/v2.40/bin/bin/../../lib/gcc/pic32c/6.2.1/../../../../pic32c/lib/v7e-m/fpv4-sp/hard\libpic32c.a(_lseek.o)
 .debug_ranges  0x00000d40       0x10 c:/program files/microchip/xc32/v2.40/bin/bin/../../lib/gcc/pic32c/6.2.1/../../../../pic32c/lib/v7e-m/fpv4-sp/hard\libpic32c.a(_read.o)
 .debug_ranges  0x00000d50       0x10 c:/program files/microchip/xc32/v2.40/bin/bin/../../lib/gcc/pic32c/6.2.1/../../../../pic32c/lib/v7e-m/fpv4-sp/hard\libpic32c.a(sbrk.o)
 .debug_ranges  0x00000d60       0x10 c:/program files/microchip/xc32/v2.40/bin/bin/../../lib/gcc/pic32c/6.2.1/../../../../pic32c/lib/v7e-m/fpv4-sp/hard\libpic32c.a(_write.o)
 .debug_ranges  0x00000d70       0x10 c:/program files/microchip/xc32/v2.40/bin/bin/../../lib/gcc/pic32c/6.2.1/../../../../pic32c/lib/v7e-m/fpv4-sp/hard\libpic32c.a(close.o)
 .debug_ranges  0x00000d80       0x10 c:/program files/microchip/xc32/v2.40/bin/bin/../../lib/gcc/pic32c/6.2.1/../../../../pic32c/lib/v7e-m/fpv4-sp/hard\libpic32c.a(fstat.o)
 .debug_ranges  0x00000d90       0x10 c:/program files/microchip/xc32/v2.40/bin/bin/../../lib/gcc/pic32c/6.2.1/../../../../pic32c/lib/v7e-m/fpv4-sp/hard\libpic32c.a(isatty.o)
 .debug_ranges  0x00000da0       0x10 c:/program files/microchip/xc32/v2.40/bin/bin/../../lib/gcc/pic32c/6.2.1/../../../../pic32c/lib/v7e-m/fpv4-sp/hard\libpic32c.a(lseek.o)
 .debug_ranges  0x00000db0       0x10 c:/program files/microchip/xc32/v2.40/bin/bin/../../lib/gcc/pic32c/6.2.1/../../../../pic32c/lib/v7e-m/fpv4-sp/hard\libpic32c.a(read.o)
 .debug_ranges  0x00000dc0       0x10 c:/program files/microchip/xc32/v2.40/bin/bin/../../lib/gcc/pic32c/6.2.1/../../../../pic32c/lib/v7e-m/fpv4-sp/hard\libpic32c.a(write.o)

.debug_line     0x00000000     0xa755
 .debug_line    0x00000000      0x44b build/same54_xplained_pro/production/_ext/265365281/mu_sched.o
 .debug_line    0x0000044b      0x198 build/same54_xplained_pro/production/_ext/265365281/mu_spscq.o
 .debug_line    0x000005e3      0x184 build/same54_xplained_pro/production/_ext/265365281/mu_task.o
 .debug_line    0x00000767      0x1a0 build/same54_xplained_pro/production/_ext/265365281/mu_time.o
 .debug_line    0x00000907      0x20b build/same54_xplained_pro/production/_ext/465512950/bsp.o
 .debug_line    0x00000b12      0x1a6 build/same54_xplained_pro/production/_ext/199192420/plib_clock.o
 .debug_line    0x00000cb8      0x1e3 build/same54_xplained_pro/production/_ext/18086165/plib_eic.o
 .debug_line    0x00000e9b      0x13a build/same54_xplained_pro/production/_ext/201341906/plib_evsys.o
 .debug_line    0x00000fd5      0x1c8 build/same54_xplained_pro/production/_ext/560952012/plib_nvic.o
 .debug_line    0x0000119d      0x358 build/same54_xplained_pro/production/_ext/392550042/plib_nvmctrl.o
 .debug_line    0x000014f5      0x1ef build/same54_xplained_pro/production/_ext/554773095/plib_pm.o
 .debug_line    0x000016e4      0x20c build/same54_xplained_pro/production/_ext/561005163/plib_port.o
 .debug_line    0x000018f0      0x36c build/same54_xplained_pro/production/_ext/18098999/plib_rtc_timer.o
 .debug_line    0x00001c5c      0x35d build/same54_xplained_pro/production/_ext/1547227007/plib_sercom2_usart.o
 .debug_line    0x00001fb9      0x1c1 build/same54_xplained_pro/production/_ext/561100223/plib_supc.o
 .debug_line    0x0000217a      0x250 build/same54_xplained_pro/production/_ext/697067648/xc32_monitor.o
 .debug_line    0x000023ca      0x4b6 build/same54_xplained_pro/production/_ext/602300742/initialization.o
 .debug_line    0x00002880      0x20a build/same54_xplained_pro/production/_ext/602300742/interrupts.o
 .debug_line    0x00002a8a      0x22a build/same54_xplained_pro/production/_ext/602300742/exceptions.o
 .debug_line    0x00002cb4      0x26f build/same54_xplained_pro/production/_ext/602300742/startup_xc32.o
 .debug_line    0x00002f23      0x300 build/same54_xplained_pro/production/_ext/1483874177/button_task.o
 .debug_line    0x00003223      0x3d6 build/same54_xplained_pro/production/_ext/1483874177/idle_task.o
 .debug_line    0x000035f9      0x386 build/same54_xplained_pro/production/_ext/1483874177/kbd_task.o
 .debug_line    0x0000397f      0x2ce build/same54_xplained_pro/production/_ext/1483874177/led_task.o
 .debug_line    0x00003c4d      0x318 build/same54_xplained_pro/production/_ext/1483874177/mu_port.o
 .debug_line    0x00003f65      0x300 build/same54_xplained_pro/production/_ext/1483874177/screen_redraw_task.o
 .debug_line    0x00004265      0x2a9 build/same54_xplained_pro/production/_ext/1483874177/screen_update_task.o
 .debug_line    0x0000450e      0x37d build/same54_xplained_pro/production/_ext/1483874177/mulib_tasker.o
 .debug_line    0x0000488b      0x201 build/same54_xplained_pro/production/_ext/1360937237/main.o
 .debug_line    0x00004a8c       0xd8 c:/program files/microchip/xc32/v2.40/bin/bin/../../lib/gcc/pic32c/6.2.1/../../../../pic32c/lib/v7e-m/fpv4-sp/hard\libpic32c.a(data_init.o)
 .debug_line    0x00004b64      0x11d c:/program files/microchip/xc32/v2.40/bin/bin/../../lib/gcc/pic32c/6.2.1/../../../../pic32c/lib/v7e-m/fpv4-sp/hard\libc_nano.a(lib_a-init.o)
 .debug_line    0x00004c81      0x2ba c:/program files/microchip/xc32/v2.40/bin/bin/../../lib/gcc/pic32c/6.2.1/../../../../pic32c/lib/v7e-m/fpv4-sp/hard\libc_nano.a(lib_a-memmove.o)
 .debug_line    0x00004f3b      0x1c8 c:/program files/microchip/xc32/v2.40/bin/bin/../../lib/gcc/pic32c/6.2.1/../../../../pic32c/lib/v7e-m/fpv4-sp/hard\libc_nano.a(_lib_a-printf.cdnopsuxX.o)
 .debug_line    0x00005103      0x295 c:/program files/microchip/xc32/v2.40/bin/bin/../../lib/gcc/pic32c/6.2.1/../../../../pic32c/lib/v7e-m/fpv4-sp/hard\libc_nano.a(lib_a-puts.o)
 .debug_line    0x00005398      0x277 c:/program files/microchip/xc32/v2.40/bin/bin/../../lib/gcc/pic32c/6.2.1/../../../../pic32c/lib/v7e-m/fpv4-sp/hard\libc_nano.a(lib_a-wbuf.o)
 .debug_line    0x0000560f      0x260 c:/program files/microchip/xc32/v2.40/bin/bin/../../lib/gcc/pic32c/6.2.1/../../../../pic32c/lib/v7e-m/fpv4-sp/hard\libc_nano.a(lib_a-wsetup.o)
 .debug_line    0x0000586f      0x2cc c:/program files/microchip/xc32/v2.40/bin/bin/../../lib/gcc/pic32c/6.2.1/../../../../pic32c/lib/v7e-m/fpv4-sp/hard\libc_nano.a(lib_a-fflush.o)
 .debug_line    0x00005b3b      0x301 c:/program files/microchip/xc32/v2.40/bin/bin/../../lib/gcc/pic32c/6.2.1/../../../../pic32c/lib/v7e-m/fpv4-sp/hard\libc_nano.a(lib_a-findfp.o)
 .debug_line    0x00005e3c      0x265 c:/program files/microchip/xc32/v2.40/bin/bin/../../lib/gcc/pic32c/6.2.1/../../../../pic32c/lib/v7e-m/fpv4-sp/hard\libc_nano.a(lib_a-fwalk.o)
 .debug_line    0x000060a1      0x17e c:/program files/microchip/xc32/v2.40/bin/bin/../../lib/gcc/pic32c/6.2.1/../../../../pic32c/lib/v7e-m/fpv4-sp/hard\libc_nano.a(lib_a-impure.o)
 .debug_line    0x0000621f      0x32c c:/program files/microchip/xc32/v2.40/bin/bin/../../lib/gcc/pic32c/6.2.1/../../../../pic32c/lib/v7e-m/fpv4-sp/hard\libc_nano.a(lib_a-makebuf.o)
 .debug_line    0x0000654b      0x2ae c:/program files/microchip/xc32/v2.40/bin/bin/../../lib/gcc/pic32c/6.2.1/../../../../pic32c/lib/v7e-m/fpv4-sp/hard\libc_nano.a(lib_a-memset.o)
 .debug_line    0x000067f9      0x1dc c:/program files/microchip/xc32/v2.40/bin/bin/../../lib/gcc/pic32c/6.2.1/../../../../pic32c/lib/v7e-m/fpv4-sp/hard\libc_nano.a(lib_a-nano-freer.o)
 .debug_line    0x000069d5      0x257 c:/program files/microchip/xc32/v2.40/bin/bin/../../lib/gcc/pic32c/6.2.1/../../../../pic32c/lib/v7e-m/fpv4-sp/hard\libc_nano.a(lib_a-nano-mallocr.o)
 .debug_line    0x00006c2c      0x3c8 c:/program files/microchip/xc32/v2.40/bin/bin/../../lib/gcc/pic32c/6.2.1/../../../../pic32c/lib/v7e-m/fpv4-sp/hard\libc_nano.a(_lib_a-nano-vfprintf.cdnopsuxX.o)
 .debug_line    0x00006ff4      0x48d c:/program files/microchip/xc32/v2.40/bin/bin/../../lib/gcc/pic32c/6.2.1/../../../../pic32c/lib/v7e-m/fpv4-sp/hard\libc_nano.a(lib_a-nano-vfprintf_i.o)
 .debug_line    0x00007481      0x212 c:/program files/microchip/xc32/v2.40/bin/bin/../../lib/gcc/pic32c/6.2.1/../../../../pic32c/lib/v7e-m/fpv4-sp/hard\libc_nano.a(lib_a-sbrkr.o)
 .debug_line    0x00007693      0x364 c:/program files/microchip/xc32/v2.40/bin/bin/../../lib/gcc/pic32c/6.2.1/../../../../pic32c/lib/v7e-m/fpv4-sp/hard\libc_nano.a(lib_a-__ssfputs.o)
 .debug_line    0x000079f7      0x2a9 c:/program files/microchip/xc32/v2.40/bin/bin/../../lib/gcc/pic32c/6.2.1/../../../../pic32c/lib/v7e-m/fpv4-sp/hard\libc_nano.a(lib_a-stdio.o)
 .debug_line    0x00007ca0      0x212 c:/program files/microchip/xc32/v2.40/bin/bin/../../lib/gcc/pic32c/6.2.1/../../../../pic32c/lib/v7e-m/fpv4-sp/hard\libc_nano.a(lib_a-writer.o)
 .debug_line    0x00007eb2      0x213 c:/program files/microchip/xc32/v2.40/bin/bin/../../lib/gcc/pic32c/6.2.1/../../../../pic32c/lib/v7e-m/fpv4-sp/hard\libc_nano.a(lib_a-closer.o)
 .debug_line    0x000080c5      0x2a8 c:/program files/microchip/xc32/v2.40/bin/bin/../../lib/gcc/pic32c/6.2.1/../../../../pic32c/lib/v7e-m/fpv4-sp/hard\libc_nano.a(lib_a-fputwc.o)
 .debug_line    0x0000836d      0x2c1 c:/program files/microchip/xc32/v2.40/bin/bin/../../lib/gcc/pic32c/6.2.1/../../../../pic32c/lib/v7e-m/fpv4-sp/hard\libc_nano.a(lib_a-fstatr.o)
 .debug_line    0x0000862e      0x214 c:/program files/microchip/xc32/v2.40/bin/bin/../../lib/gcc/pic32c/6.2.1/../../../../pic32c/lib/v7e-m/fpv4-sp/hard\libc_nano.a(lib_a-isattyr.o)
 .debug_line    0x00008842      0x327 c:/program files/microchip/xc32/v2.40/bin/bin/../../lib/gcc/pic32c/6.2.1/../../../../pic32c/lib/v7e-m/fpv4-sp/hard\libc_nano.a(lib_a-locale.o)
 .debug_line    0x00008b69      0x212 c:/program files/microchip/xc32/v2.40/bin/bin/../../lib/gcc/pic32c/6.2.1/../../../../pic32c/lib/v7e-m/fpv4-sp/hard\libc_nano.a(lib_a-lseekr.o)
 .debug_line    0x00008d7b      0x2d5 c:/program files/microchip/xc32/v2.40/bin/bin/../../lib/gcc/pic32c/6.2.1/../../../../pic32c/lib/v7e-m/fpv4-sp/hard\libc_nano.a(lib_a-mbtowc_r.o)
 .debug_line    0x00009050       0xda c:/program files/microchip/xc32/v2.40/bin/bin/../../lib/gcc/pic32c/6.2.1/../../../../pic32c/lib/v7e-m/fpv4-sp/hard\libc_nano.a(lib_a-memchr.o)
 .debug_line    0x0000912a      0x18d c:/program files/microchip/xc32/v2.40/bin/bin/../../lib/gcc/pic32c/6.2.1/../../../../pic32c/lib/v7e-m/fpv4-sp/hard\libc_nano.a(lib_a-mlock.o)
 .debug_line    0x000092b7      0x211 c:/program files/microchip/xc32/v2.40/bin/bin/../../lib/gcc/pic32c/6.2.1/../../../../pic32c/lib/v7e-m/fpv4-sp/hard\libc_nano.a(lib_a-readr.o)
 .debug_line    0x000094c8      0x241 c:/program files/microchip/xc32/v2.40/bin/bin/../../lib/gcc/pic32c/6.2.1/../../../../pic32c/lib/v7e-m/fpv4-sp/hard\libc_nano.a(lib_a-reent.o)
 .debug_line    0x00009709      0x2db c:/program files/microchip/xc32/v2.40/bin/bin/../../lib/gcc/pic32c/6.2.1/../../../../pic32c/lib/v7e-m/fpv4-sp/hard\libc_nano.a(lib_a-wcrtomb.o)
 .debug_line    0x000099e4      0x2d4 c:/program files/microchip/xc32/v2.40/bin/bin/../../lib/gcc/pic32c/6.2.1/../../../../pic32c/lib/v7e-m/fpv4-sp/hard\libc_nano.a(lib_a-wctomb_r.o)
 .debug_line    0x00009cb8      0x21e c:/program files/microchip/xc32/v2.40/bin/bin/../../lib/gcc/pic32c/6.2.1/../../../../pic32c/lib/v7e-m/fpv4-sp/hard\libc_nano.a(lib_a-ctype_.o)
 .debug_line    0x00009ed6       0x9c c:/program files/microchip/xc32/v2.40/bin/bin/../../lib/gcc/pic32c/6.2.1/../../../../pic32c/lib/v7e-m/fpv4-sp/hard\libpic32c.a(_close.o)
 .debug_line    0x00009f72       0x9c c:/program files/microchip/xc32/v2.40/bin/bin/../../lib/gcc/pic32c/6.2.1/../../../../pic32c/lib/v7e-m/fpv4-sp/hard\libpic32c.a(_fstat.o)
 .debug_line    0x0000a00e       0x9d c:/program files/microchip/xc32/v2.40/bin/bin/../../lib/gcc/pic32c/6.2.1/../../../../pic32c/lib/v7e-m/fpv4-sp/hard\libpic32c.a(_isatty.o)
 .debug_line    0x0000a0ab       0x9c c:/program files/microchip/xc32/v2.40/bin/bin/../../lib/gcc/pic32c/6.2.1/../../../../pic32c/lib/v7e-m/fpv4-sp/hard\libpic32c.a(_lseek.o)
 .debug_line    0x0000a147       0x9b c:/program files/microchip/xc32/v2.40/bin/bin/../../lib/gcc/pic32c/6.2.1/../../../../pic32c/lib/v7e-m/fpv4-sp/hard\libpic32c.a(_read.o)
 .debug_line    0x0000a1e2       0xa2 c:/program files/microchip/xc32/v2.40/bin/bin/../../lib/gcc/pic32c/6.2.1/../../../../pic32c/lib/v7e-m/fpv4-sp/hard\libpic32c.a(sbrk.o)
 .debug_line    0x0000a284       0x9c c:/program files/microchip/xc32/v2.40/bin/bin/../../lib/gcc/pic32c/6.2.1/../../../../pic32c/lib/v7e-m/fpv4-sp/hard\libpic32c.a(_write.o)
 .debug_line    0x0000a320       0x9b c:/program files/microchip/xc32/v2.40/bin/bin/../../lib/gcc/pic32c/6.2.1/../../../../pic32c/lib/v7e-m/fpv4-sp/hard\libpic32c.a(close.o)
 .debug_line    0x0000a3bb      0x102 c:/program files/microchip/xc32/v2.40/bin/bin/../../lib/gcc/pic32c/6.2.1/../../../../pic32c/lib/v7e-m/fpv4-sp/hard\libpic32c.a(fstat.o)
 .debug_line    0x0000a4bd       0x9c c:/program files/microchip/xc32/v2.40/bin/bin/../../lib/gcc/pic32c/6.2.1/../../../../pic32c/lib/v7e-m/fpv4-sp/hard\libpic32c.a(isatty.o)
 .debug_line    0x0000a559       0x9b c:/program files/microchip/xc32/v2.40/bin/bin/../../lib/gcc/pic32c/6.2.1/../../../../pic32c/lib/v7e-m/fpv4-sp/hard\libpic32c.a(lseek.o)
 .debug_line    0x0000a5f4       0xad c:/program files/microchip/xc32/v2.40/bin/bin/../../lib/gcc/pic32c/6.2.1/../../../../pic32c/lib/v7e-m/fpv4-sp/hard\libpic32c.a(read.o)
 .debug_line    0x0000a6a1       0xb4 c:/program files/microchip/xc32/v2.40/bin/bin/../../lib/gcc/pic32c/6.2.1/../../../../pic32c/lib/v7e-m/fpv4-sp/hard\libpic32c.a(write.o)

.debug_str      0x00000000     0x19f4
 .debug_str     0x00000000       0xc6 build/same54_xplained_pro/production/_ext/265365281/mu_sched.o
 .debug_str     0x000000c6        0x0 build/same54_xplained_pro/production/_ext/265365281/mu_spscq.o
 .debug_str     0x000000c6       0x3b build/same54_xplained_pro/production/_ext/265365281/mu_task.o
 .debug_str     0x00000101       0xa0 build/same54_xplained_pro/production/_ext/265365281/mu_time.o
 .debug_str     0x000001a1        0xe build/same54_xplained_pro/production/_ext/465512950/bsp.o
 .debug_str     0x000001af       0x14 build/same54_xplained_pro/production/_ext/199192420/plib_clock.o
 .debug_str     0x000001c3        0x9 build/same54_xplained_pro/production/_ext/18086165/plib_eic.o
 .debug_str     0x000001cc        0x0 build/same54_xplained_pro/production/_ext/201341906/plib_evsys.o
 .debug_str     0x000001cc        0xa build/same54_xplained_pro/production/_ext/560952012/plib_nvic.o
 .debug_str     0x000001d6       0x29 build/same54_xplained_pro/production/_ext/392550042/plib_nvmctrl.o
 .debug_str     0x000001ff        0x0 build/same54_xplained_pro/production/_ext/554773095/plib_pm.o
 .debug_str     0x000001ff        0xb build/same54_xplained_pro/production/_ext/561005163/plib_port.o
 .debug_str     0x0000020a      0x11f build/same54_xplained_pro/production/_ext/18098999/plib_rtc_timer.o
 .debug_str     0x00000329      0x12c build/same54_xplained_pro/production/_ext/1547227007/plib_sercom2_usart.o
 .debug_str     0x00000455        0x0 build/same54_xplained_pro/production/_ext/561100223/plib_supc.o
 .debug_str     0x00000455       0x35 build/same54_xplained_pro/production/_ext/697067648/xc32_monitor.o
 .debug_str     0x0000048a       0xc7 build/same54_xplained_pro/production/_ext/602300742/initialization.o
 .debug_str     0x00000551        0xe build/same54_xplained_pro/production/_ext/602300742/interrupts.o
 .debug_str     0x0000055f        0xe build/same54_xplained_pro/production/_ext/602300742/exceptions.o
 .debug_str     0x0000056d       0x79 build/same54_xplained_pro/production/_ext/602300742/startup_xc32.o
 .debug_str     0x000005e6       0x86 build/same54_xplained_pro/production/_ext/1483874177/button_task.o
 .debug_str     0x0000066c      0x12d build/same54_xplained_pro/production/_ext/1483874177/idle_task.o
 .debug_str     0x00000799      0x24c build/same54_xplained_pro/production/_ext/1483874177/kbd_task.o
 .debug_str     0x000009e5       0x32 build/same54_xplained_pro/production/_ext/1483874177/led_task.o
 .debug_str     0x00000a17       0x5c build/same54_xplained_pro/production/_ext/1483874177/mu_port.o
 .debug_str     0x00000a73       0xb5 build/same54_xplained_pro/production/_ext/1483874177/screen_redraw_task.o
 .debug_str     0x00000b28       0x69 build/same54_xplained_pro/production/_ext/1483874177/screen_update_task.o
 .debug_str     0x00000b91       0xfa build/same54_xplained_pro/production/_ext/1483874177/mulib_tasker.o
 .debug_str     0x00000c8b       0x41 build/same54_xplained_pro/production/_ext/1360937237/main.o
 .debug_str     0x00000ccc        0x0 c:/program files/microchip/xc32/v2.40/bin/bin/../../lib/gcc/pic32c/6.2.1/../../../../pic32c/lib/v7e-m/fpv4-sp/hard\libpic32c.a(data_init.o)
 .debug_str     0x00000ccc        0x0 c:/program files/microchip/xc32/v2.40/bin/bin/../../lib/gcc/pic32c/6.2.1/../../../../pic32c/lib/v7e-m/fpv4-sp/hard\libc_nano.a(lib_a-init.o)
 .debug_str     0x00000ccc      0x114 c:/program files/microchip/xc32/v2.40/bin/bin/../../lib/gcc/pic32c/6.2.1/../../../../pic32c/lib/v7e-m/fpv4-sp/hard\libc_nano.a(lib_a-memmove.o)
 .debug_str     0x00000de0       0x1d c:/program files/microchip/xc32/v2.40/bin/bin/../../lib/gcc/pic32c/6.2.1/../../../../pic32c/lib/v7e-m/fpv4-sp/hard\libc_nano.a(_lib_a-printf.cdnopsuxX.o)
 .debug_str     0x00000dfd       0x1f c:/program files/microchip/xc32/v2.40/bin/bin/../../lib/gcc/pic32c/6.2.1/../../../../pic32c/lib/v7e-m/fpv4-sp/hard\libc_nano.a(lib_a-puts.o)
 .debug_str     0x00000e1c       0x1f c:/program files/microchip/xc32/v2.40/bin/bin/../../lib/gcc/pic32c/6.2.1/../../../../pic32c/lib/v7e-m/fpv4-sp/hard\libc_nano.a(lib_a-wbuf.o)
 .debug_str     0x00000e3b       0x16 c:/program files/microchip/xc32/v2.40/bin/bin/../../lib/gcc/pic32c/6.2.1/../../../../pic32c/lib/v7e-m/fpv4-sp/hard\libc_nano.a(lib_a-wsetup.o)
 .debug_str     0x00000e51       0x16 c:/program files/microchip/xc32/v2.40/bin/bin/../../lib/gcc/pic32c/6.2.1/../../../../pic32c/lib/v7e-m/fpv4-sp/hard\libc_nano.a(lib_a-fflush.o)
 .debug_str     0x00000e67       0x20 c:/program files/microchip/xc32/v2.40/bin/bin/../../lib/gcc/pic32c/6.2.1/../../../../pic32c/lib/v7e-m/fpv4-sp/hard\libc_nano.a(lib_a-findfp.o)
 .debug_str     0x00000e87        0x9 c:/program files/microchip/xc32/v2.40/bin/bin/../../lib/gcc/pic32c/6.2.1/../../../../pic32c/lib/v7e-m/fpv4-sp/hard\libc_nano.a(lib_a-fwalk.o)
 .debug_str     0x00000e90        0x9 c:/program files/microchip/xc32/v2.40/bin/bin/../../lib/gcc/pic32c/6.2.1/../../../../pic32c/lib/v7e-m/fpv4-sp/hard\libc_nano.a(lib_a-impure.o)
 .debug_str     0x00000e99       0x31 c:/program files/microchip/xc32/v2.40/bin/bin/../../lib/gcc/pic32c/6.2.1/../../../../pic32c/lib/v7e-m/fpv4-sp/hard\libc_nano.a(lib_a-makebuf.o)
 .debug_str     0x00000eca      0x114 c:/program files/microchip/xc32/v2.40/bin/bin/../../lib/gcc/pic32c/6.2.1/../../../../pic32c/lib/v7e-m/fpv4-sp/hard\libc_nano.a(lib_a-memset.o)
 .debug_str     0x00000fde       0x27 c:/program files/microchip/xc32/v2.40/bin/bin/../../lib/gcc/pic32c/6.2.1/../../../../pic32c/lib/v7e-m/fpv4-sp/hard\libc_nano.a(lib_a-nano-freer.o)
 .debug_str     0x00001005       0x31 c:/program files/microchip/xc32/v2.40/bin/bin/../../lib/gcc/pic32c/6.2.1/../../../../pic32c/lib/v7e-m/fpv4-sp/hard\libc_nano.a(lib_a-nano-mallocr.o)
 .debug_str     0x00001036      0x13b c:/program files/microchip/xc32/v2.40/bin/bin/../../lib/gcc/pic32c/6.2.1/../../../../pic32c/lib/v7e-m/fpv4-sp/hard\libc_nano.a(_lib_a-nano-vfprintf.cdnopsuxX.o)
 .debug_str     0x00001171      0x11b c:/program files/microchip/xc32/v2.40/bin/bin/../../lib/gcc/pic32c/6.2.1/../../../../pic32c/lib/v7e-m/fpv4-sp/hard\libc_nano.a(lib_a-nano-vfprintf_i.o)
 .debug_str     0x0000128c        0x9 c:/program files/microchip/xc32/v2.40/bin/bin/../../lib/gcc/pic32c/6.2.1/../../../../pic32c/lib/v7e-m/fpv4-sp/hard\libc_nano.a(lib_a-sbrkr.o)
 .debug_str     0x00001295      0x128 c:/program files/microchip/xc32/v2.40/bin/bin/../../lib/gcc/pic32c/6.2.1/../../../../pic32c/lib/v7e-m/fpv4-sp/hard\libc_nano.a(lib_a-__ssfputs.o)
 .debug_str     0x000013bd       0x2b c:/program files/microchip/xc32/v2.40/bin/bin/../../lib/gcc/pic32c/6.2.1/../../../../pic32c/lib/v7e-m/fpv4-sp/hard\libc_nano.a(lib_a-stdio.o)
 .debug_str     0x000013e8       0x10 c:/program files/microchip/xc32/v2.40/bin/bin/../../lib/gcc/pic32c/6.2.1/../../../../pic32c/lib/v7e-m/fpv4-sp/hard\libc_nano.a(lib_a-writer.o)
 .debug_str     0x000013f8       0x10 c:/program files/microchip/xc32/v2.40/bin/bin/../../lib/gcc/pic32c/6.2.1/../../../../pic32c/lib/v7e-m/fpv4-sp/hard\libc_nano.a(lib_a-closer.o)
 .debug_str     0x00001408       0x32 c:/program files/microchip/xc32/v2.40/bin/bin/../../lib/gcc/pic32c/6.2.1/../../../../pic32c/lib/v7e-m/fpv4-sp/hard\libc_nano.a(lib_a-fputwc.o)
 .debug_str     0x0000143a        0x9 c:/program files/microchip/xc32/v2.40/bin/bin/../../lib/gcc/pic32c/6.2.1/../../../../pic32c/lib/v7e-m/fpv4-sp/hard\libc_nano.a(lib_a-fstatr.o)
 .debug_str     0x00001443        0x9 c:/program files/microchip/xc32/v2.40/bin/bin/../../lib/gcc/pic32c/6.2.1/../../../../pic32c/lib/v7e-m/fpv4-sp/hard\libc_nano.a(lib_a-isattyr.o)
 .debug_str     0x0000144c      0x134 c:/program files/microchip/xc32/v2.40/bin/bin/../../lib/gcc/pic32c/6.2.1/../../../../pic32c/lib/v7e-m/fpv4-sp/hard\libc_nano.a(lib_a-locale.o)
 .debug_str     0x00001580        0x9 c:/program files/microchip/xc32/v2.40/bin/bin/../../lib/gcc/pic32c/6.2.1/../../../../pic32c/lib/v7e-m/fpv4-sp/hard\libc_nano.a(lib_a-lseekr.o)
 .debug_str     0x00001589      0x114 c:/program files/microchip/xc32/v2.40/bin/bin/../../lib/gcc/pic32c/6.2.1/../../../../pic32c/lib/v7e-m/fpv4-sp/hard\libc_nano.a(lib_a-mbtowc_r.o)
 .debug_str     0x0000169d        0x9 c:/program files/microchip/xc32/v2.40/bin/bin/../../lib/gcc/pic32c/6.2.1/../../../../pic32c/lib/v7e-m/fpv4-sp/hard\libc_nano.a(lib_a-mlock.o)
 .debug_str     0x000016a6        0x9 c:/program files/microchip/xc32/v2.40/bin/bin/../../lib/gcc/pic32c/6.2.1/../../../../pic32c/lib/v7e-m/fpv4-sp/hard\libc_nano.a(lib_a-readr.o)
 .debug_str     0x000016af        0x9 c:/program files/microchip/xc32/v2.40/bin/bin/../../lib/gcc/pic32c/6.2.1/../../../../pic32c/lib/v7e-m/fpv4-sp/hard\libc_nano.a(lib_a-reent.o)
 .debug_str     0x000016b8      0x114 c:/program files/microchip/xc32/v2.40/bin/bin/../../lib/gcc/pic32c/6.2.1/../../../../pic32c/lib/v7e-m/fpv4-sp/hard\libc_nano.a(lib_a-wcrtomb.o)
 .debug_str     0x000017cc      0x114 c:/program files/microchip/xc32/v2.40/bin/bin/../../lib/gcc/pic32c/6.2.1/../../../../pic32c/lib/v7e-m/fpv4-sp/hard\libc_nano.a(lib_a-wctomb_r.o)
 .debug_str     0x000018e0      0x114 c:/program files/microchip/xc32/v2.40/bin/bin/../../lib/gcc/pic32c/6.2.1/../../../../pic32c/lib/v7e-m/fpv4-sp/hard\libc_nano.a(lib_a-ctype_.o)
 .debug_str     0x000019f4        0x0 c:/program files/microchip/xc32/v2.40/bin/bin/../../lib/gcc/pic32c/6.2.1/../../../../pic32c/lib/v7e-m/fpv4-sp/hard\libpic32c.a(_close.o)
 .debug_str     0x000019f4        0x0 c:/program files/microchip/xc32/v2.40/bin/bin/../../lib/gcc/pic32c/6.2.1/../../../../pic32c/lib/v7e-m/fpv4-sp/hard\libpic32c.a(_fstat.o)
 .debug_str     0x000019f4        0x0 c:/program files/microchip/xc32/v2.40/bin/bin/../../lib/gcc/pic32c/6.2.1/../../../../pic32c/lib/v7e-m/fpv4-sp/hard\libpic32c.a(_isatty.o)
 .debug_str     0x000019f4        0x0 c:/program files/microchip/xc32/v2.40/bin/bin/../../lib/gcc/pic32c/6.2.1/../../../../pic32c/lib/v7e-m/fpv4-sp/hard\libpic32c.a(_lseek.o)
 .debug_str     0x000019f4        0x0 c:/program files/microchip/xc32/v2.40/bin/bin/../../lib/gcc/pic32c/6.2.1/../../../../pic32c/lib/v7e-m/fpv4-sp/hard\libpic32c.a(_read.o)
 .debug_str     0x000019f4        0x0 c:/program files/microchip/xc32/v2.40/bin/bin/../../lib/gcc/pic32c/6.2.1/../../../../pic32c/lib/v7e-m/fpv4-sp/hard\libpic32c.a(sbrk.o)
 .debug_str     0x000019f4        0x0 c:/program files/microchip/xc32/v2.40/bin/bin/../../lib/gcc/pic32c/6.2.1/../../../../pic32c/lib/v7e-m/fpv4-sp/hard\libpic32c.a(_write.o)
 .debug_str     0x000019f4        0x0 c:/program files/microchip/xc32/v2.40/bin/bin/../../lib/gcc/pic32c/6.2.1/../../../../pic32c/lib/v7e-m/fpv4-sp/hard\libpic32c.a(close.o)
 .debug_str     0x000019f4        0x0 c:/program files/microchip/xc32/v2.40/bin/bin/../../lib/gcc/pic32c/6.2.1/../../../../pic32c/lib/v7e-m/fpv4-sp/hard\libpic32c.a(fstat.o)
 .debug_str     0x000019f4        0x0 c:/program files/microchip/xc32/v2.40/bin/bin/../../lib/gcc/pic32c/6.2.1/../../../../pic32c/lib/v7e-m/fpv4-sp/hard\libpic32c.a(isatty.o)
 .debug_str     0x000019f4        0x0 c:/program files/microchip/xc32/v2.40/bin/bin/../../lib/gcc/pic32c/6.2.1/../../../../pic32c/lib/v7e-m/fpv4-sp/hard\libpic32c.a(lseek.o)
 .debug_str     0x000019f4        0x0 c:/program files/microchip/xc32/v2.40/bin/bin/../../lib/gcc/pic32c/6.2.1/../../../../pic32c/lib/v7e-m/fpv4-sp/hard\libpic32c.a(read.o)
 .debug_str     0x000019f4        0x0 c:/program files/microchip/xc32/v2.40/bin/bin/../../lib/gcc/pic32c/6.2.1/../../../../pic32c/lib/v7e-m/fpv4-sp/hard\libpic32c.a(write.o)

.debug_frame    0x00000000     0x19f0
 .debug_frame   0x00000000      0x258 build/same54_xplained_pro/production/_ext/265365281/mu_sched.o
 .debug_frame   0x00000258       0x9c build/same54_xplained_pro/production/_ext/265365281/mu_spscq.o
 .debug_frame   0x000002f4       0x98 build/same54_xplained_pro/production/_ext/265365281/mu_task.o
 .debug_frame   0x0000038c       0xe0 build/same54_xplained_pro/production/_ext/265365281/mu_time.o
 .debug_frame   0x0000046c       0x20 build/same54_xplained_pro/production/_ext/465512950/bsp.o
 .debug_frame   0x0000048c       0x20 build/same54_xplained_pro/production/_ext/199192420/plib_clock.o
 .debug_frame   0x000004ac       0x78 build/same54_xplained_pro/production/_ext/18086165/plib_eic.o
 .debug_frame   0x00000524       0x20 build/same54_xplained_pro/production/_ext/201341906/plib_evsys.o
 .debug_frame   0x00000544       0x20 build/same54_xplained_pro/production/_ext/560952012/plib_nvic.o
 .debug_frame   0x00000564      0x160 build/same54_xplained_pro/production/_ext/392550042/plib_nvmctrl.o
 .debug_frame   0x000006c4       0x90 build/same54_xplained_pro/production/_ext/554773095/plib_pm.o
 .debug_frame   0x00000754       0xa0 build/same54_xplained_pro/production/_ext/561005163/plib_port.o
 .debug_frame   0x000007f4      0x128 build/same54_xplained_pro/production/_ext/18098999/plib_rtc_timer.o
 .debug_frame   0x0000091c      0x13c build/same54_xplained_pro/production/_ext/1547227007/plib_sercom2_usart.o
 .debug_frame   0x00000a58       0x60 build/same54_xplained_pro/production/_ext/561100223/plib_supc.o
 .debug_frame   0x00000ab8       0x50 build/same54_xplained_pro/production/_ext/697067648/xc32_monitor.o
 .debug_frame   0x00000b08       0x28 build/same54_xplained_pro/production/_ext/602300742/initialization.o
 .debug_frame   0x00000b30       0x20 build/same54_xplained_pro/production/_ext/602300742/interrupts.o
 .debug_frame   0x00000b50       0x70 build/same54_xplained_pro/production/_ext/602300742/exceptions.o
 .debug_frame   0x00000bc0       0x28 build/same54_xplained_pro/production/_ext/602300742/startup_xc32.o
 .debug_frame   0x00000be8       0x58 build/same54_xplained_pro/production/_ext/1483874177/button_task.o
 .debug_frame   0x00000c40       0x54 build/same54_xplained_pro/production/_ext/1483874177/idle_task.o
 .debug_frame   0x00000c94       0x6c build/same54_xplained_pro/production/_ext/1483874177/kbd_task.o
 .debug_frame   0x00000d00       0x40 build/same54_xplained_pro/production/_ext/1483874177/led_task.o
 .debug_frame   0x00000d40       0xd8 build/same54_xplained_pro/production/_ext/1483874177/mu_port.o
 .debug_frame   0x00000e18       0x54 build/same54_xplained_pro/production/_ext/1483874177/screen_redraw_task.o
 .debug_frame   0x00000e6c       0x40 build/same54_xplained_pro/production/_ext/1483874177/screen_update_task.o
 .debug_frame   0x00000eac       0xcc build/same54_xplained_pro/production/_ext/1483874177/mulib_tasker.o
 .debug_frame   0x00000f78       0x28 build/same54_xplained_pro/production/_ext/1360937237/main.o
 .debug_frame   0x00000fa0       0x2c c:/program files/microchip/xc32/v2.40/bin/bin/../../lib/gcc/pic32c/6.2.1/../../../../pic32c/lib/v7e-m/fpv4-sp/hard\libpic32c.a(data_init.o)
 .debug_frame   0x00000fcc       0x2c c:/program files/microchip/xc32/v2.40/bin/bin/../../lib/gcc/pic32c/6.2.1/../../../../pic32c/lib/v7e-m/fpv4-sp/hard\libc_nano.a(lib_a-init.o)
 .debug_frame   0x00000ff8       0x28 c:/program files/microchip/xc32/v2.40/bin/bin/../../lib/gcc/pic32c/6.2.1/../../../../pic32c/lib/v7e-m/fpv4-sp/hard\libc_nano.a(lib_a-memmove.o)
 .debug_frame   0x00001020       0x40 c:/program files/microchip/xc32/v2.40/bin/bin/../../lib/gcc/pic32c/6.2.1/../../../../pic32c/lib/v7e-m/fpv4-sp/hard\libc_nano.a(_lib_a-printf.cdnopsuxX.o)
 .debug_frame   0x00001060       0x3c c:/program files/microchip/xc32/v2.40/bin/bin/../../lib/gcc/pic32c/6.2.1/../../../../pic32c/lib/v7e-m/fpv4-sp/hard\libc_nano.a(lib_a-puts.o)
 .debug_frame   0x0000109c       0x40 c:/program files/microchip/xc32/v2.40/bin/bin/../../lib/gcc/pic32c/6.2.1/../../../../pic32c/lib/v7e-m/fpv4-sp/hard\libc_nano.a(lib_a-wbuf.o)
 .debug_frame   0x000010dc       0x2c c:/program files/microchip/xc32/v2.40/bin/bin/../../lib/gcc/pic32c/6.2.1/../../../../pic32c/lib/v7e-m/fpv4-sp/hard\libc_nano.a(lib_a-wsetup.o)
 .debug_frame   0x00001108       0x68 c:/program files/microchip/xc32/v2.40/bin/bin/../../lib/gcc/pic32c/6.2.1/../../../../pic32c/lib/v7e-m/fpv4-sp/hard\libc_nano.a(lib_a-fflush.o)
 .debug_frame   0x00001170       0x9c c:/program files/microchip/xc32/v2.40/bin/bin/../../lib/gcc/pic32c/6.2.1/../../../../pic32c/lib/v7e-m/fpv4-sp/hard\libc_nano.a(lib_a-findfp.o)
 .debug_frame   0x0000120c       0x54 c:/program files/microchip/xc32/v2.40/bin/bin/../../lib/gcc/pic32c/6.2.1/../../../../pic32c/lib/v7e-m/fpv4-sp/hard\libc_nano.a(lib_a-fwalk.o)
 .debug_frame   0x00001260       0x58 c:/program files/microchip/xc32/v2.40/bin/bin/../../lib/gcc/pic32c/6.2.1/../../../../pic32c/lib/v7e-m/fpv4-sp/hard\libc_nano.a(lib_a-makebuf.o)
 .debug_frame   0x000012b8       0x20 c:/program files/microchip/xc32/v2.40/bin/bin/../../lib/gcc/pic32c/6.2.1/../../../../pic32c/lib/v7e-m/fpv4-sp/hard\libc_nano.a(lib_a-memset.o)
 .debug_frame   0x000012d8       0x38 c:/program files/microchip/xc32/v2.40/bin/bin/../../lib/gcc/pic32c/6.2.1/../../../../pic32c/lib/v7e-m/fpv4-sp/hard\libc_nano.a(lib_a-nano-freer.o)
 .debug_frame   0x00001310       0x2c c:/program files/microchip/xc32/v2.40/bin/bin/../../lib/gcc/pic32c/6.2.1/../../../../pic32c/lib/v7e-m/fpv4-sp/hard\libc_nano.a(lib_a-nano-mallocr.o)
 .debug_frame   0x0000133c       0x60 c:/program files/microchip/xc32/v2.40/bin/bin/../../lib/gcc/pic32c/6.2.1/../../../../pic32c/lib/v7e-m/fpv4-sp/hard\libc_nano.a(_lib_a-nano-vfprintf.cdnopsuxX.o)
 .debug_frame   0x0000139c       0x60 c:/program files/microchip/xc32/v2.40/bin/bin/../../lib/gcc/pic32c/6.2.1/../../../../pic32c/lib/v7e-m/fpv4-sp/hard\libc_nano.a(lib_a-nano-vfprintf_i.o)
 .debug_frame   0x000013fc       0x2c c:/program files/microchip/xc32/v2.40/bin/bin/../../lib/gcc/pic32c/6.2.1/../../../../pic32c/lib/v7e-m/fpv4-sp/hard\libc_nano.a(lib_a-sbrkr.o)
 .debug_frame   0x00001428       0x50 c:/program files/microchip/xc32/v2.40/bin/bin/../../lib/gcc/pic32c/6.2.1/../../../../pic32c/lib/v7e-m/fpv4-sp/hard\libc_nano.a(lib_a-__ssfputs.o)
 .debug_frame   0x00001478       0x88 c:/program files/microchip/xc32/v2.40/bin/bin/../../lib/gcc/pic32c/6.2.1/../../../../pic32c/lib/v7e-m/fpv4-sp/hard\libc_nano.a(lib_a-stdio.o)
 .debug_frame   0x00001500       0x2c c:/program files/microchip/xc32/v2.40/bin/bin/../../lib/gcc/pic32c/6.2.1/../../../../pic32c/lib/v7e-m/fpv4-sp/hard\libc_nano.a(lib_a-writer.o)
 .debug_frame   0x0000152c       0x2c c:/program files/microchip/xc32/v2.40/bin/bin/../../lib/gcc/pic32c/6.2.1/../../../../pic32c/lib/v7e-m/fpv4-sp/hard\libc_nano.a(lib_a-closer.o)
 .debug_frame   0x00001558       0x70 c:/program files/microchip/xc32/v2.40/bin/bin/../../lib/gcc/pic32c/6.2.1/../../../../pic32c/lib/v7e-m/fpv4-sp/hard\libc_nano.a(lib_a-fputwc.o)
 .debug_frame   0x000015c8       0x2c c:/program files/microchip/xc32/v2.40/bin/bin/../../lib/gcc/pic32c/6.2.1/../../../../pic32c/lib/v7e-m/fpv4-sp/hard\libc_nano.a(lib_a-fstatr.o)
 .debug_frame   0x000015f4       0x2c c:/program files/microchip/xc32/v2.40/bin/bin/../../lib/gcc/pic32c/6.2.1/../../../../pic32c/lib/v7e-m/fpv4-sp/hard\libc_nano.a(lib_a-isattyr.o)
 .debug_frame   0x00001620       0x68 c:/program files/microchip/xc32/v2.40/bin/bin/../../lib/gcc/pic32c/6.2.1/../../../../pic32c/lib/v7e-m/fpv4-sp/hard\libc_nano.a(lib_a-locale.o)
 .debug_frame   0x00001688       0x2c c:/program files/microchip/xc32/v2.40/bin/bin/../../lib/gcc/pic32c/6.2.1/../../../../pic32c/lib/v7e-m/fpv4-sp/hard\libc_nano.a(lib_a-lseekr.o)
 .debug_frame   0x000016b4       0x48 c:/program files/microchip/xc32/v2.40/bin/bin/../../lib/gcc/pic32c/6.2.1/../../../../pic32c/lib/v7e-m/fpv4-sp/hard\libc_nano.a(lib_a-mbtowc_r.o)
 .debug_frame   0x000016fc       0x30 c:/program files/microchip/xc32/v2.40/bin/bin/../../lib/gcc/pic32c/6.2.1/../../../../pic32c/lib/v7e-m/fpv4-sp/hard\libc_nano.a(lib_a-mlock.o)
 .debug_frame   0x0000172c       0x2c c:/program files/microchip/xc32/v2.40/bin/bin/../../lib/gcc/pic32c/6.2.1/../../../../pic32c/lib/v7e-m/fpv4-sp/hard\libc_nano.a(lib_a-readr.o)
 .debug_frame   0x00001758       0x5c c:/program files/microchip/xc32/v2.40/bin/bin/../../lib/gcc/pic32c/6.2.1/../../../../pic32c/lib/v7e-m/fpv4-sp/hard\libc_nano.a(lib_a-reent.o)
 .debug_frame   0x000017b4       0x48 c:/program files/microchip/xc32/v2.40/bin/bin/../../lib/gcc/pic32c/6.2.1/../../../../pic32c/lib/v7e-m/fpv4-sp/hard\libc_nano.a(lib_a-wcrtomb.o)
 .debug_frame   0x000017fc       0x3c c:/program files/microchip/xc32/v2.40/bin/bin/../../lib/gcc/pic32c/6.2.1/../../../../pic32c/lib/v7e-m/fpv4-sp/hard\libc_nano.a(lib_a-wctomb_r.o)
 .debug_frame   0x00001838       0x20 c:/program files/microchip/xc32/v2.40/bin/bin/../../lib/gcc/pic32c/6.2.1/../../../../pic32c/lib/v7e-m/fpv4-sp/hard\libpic32c.a(_close.o)
 .debug_frame   0x00001858       0x20 c:/program files/microchip/xc32/v2.40/bin/bin/../../lib/gcc/pic32c/6.2.1/../../../../pic32c/lib/v7e-m/fpv4-sp/hard\libpic32c.a(_fstat.o)
 .debug_frame   0x00001878       0x20 c:/program files/microchip/xc32/v2.40/bin/bin/../../lib/gcc/pic32c/6.2.1/../../../../pic32c/lib/v7e-m/fpv4-sp/hard\libpic32c.a(_isatty.o)
 .debug_frame   0x00001898       0x20 c:/program files/microchip/xc32/v2.40/bin/bin/../../lib/gcc/pic32c/6.2.1/../../../../pic32c/lib/v7e-m/fpv4-sp/hard\libpic32c.a(_lseek.o)
 .debug_frame   0x000018b8       0x20 c:/program files/microchip/xc32/v2.40/bin/bin/../../lib/gcc/pic32c/6.2.1/../../../../pic32c/lib/v7e-m/fpv4-sp/hard\libpic32c.a(_read.o)
 .debug_frame   0x000018d8       0x20 c:/program files/microchip/xc32/v2.40/bin/bin/../../lib/gcc/pic32c/6.2.1/../../../../pic32c/lib/v7e-m/fpv4-sp/hard\libpic32c.a(sbrk.o)
 .debug_frame   0x000018f8       0x20 c:/program files/microchip/xc32/v2.40/bin/bin/../../lib/gcc/pic32c/6.2.1/../../../../pic32c/lib/v7e-m/fpv4-sp/hard\libpic32c.a(_write.o)
 .debug_frame   0x00001918       0x20 c:/program files/microchip/xc32/v2.40/bin/bin/../../lib/gcc/pic32c/6.2.1/../../../../pic32c/lib/v7e-m/fpv4-sp/hard\libpic32c.a(close.o)
 .debug_frame   0x00001938       0x20 c:/program files/microchip/xc32/v2.40/bin/bin/../../lib/gcc/pic32c/6.2.1/../../../../pic32c/lib/v7e-m/fpv4-sp/hard\libpic32c.a(fstat.o)
 .debug_frame   0x00001958       0x20 c:/program files/microchip/xc32/v2.40/bin/bin/../../lib/gcc/pic32c/6.2.1/../../../../pic32c/lib/v7e-m/fpv4-sp/hard\libpic32c.a(isatty.o)
 .debug_frame   0x00001978       0x20 c:/program files/microchip/xc32/v2.40/bin/bin/../../lib/gcc/pic32c/6.2.1/../../../../pic32c/lib/v7e-m/fpv4-sp/hard\libpic32c.a(lseek.o)
 .debug_frame   0x00001998       0x2c c:/program files/microchip/xc32/v2.40/bin/bin/../../lib/gcc/pic32c/6.2.1/../../../../pic32c/lib/v7e-m/fpv4-sp/hard\libpic32c.a(read.o)
 .debug_frame   0x000019c4       0x2c c:/program files/microchip/xc32/v2.40/bin/bin/../../lib/gcc/pic32c/6.2.1/../../../../pic32c/lib/v7e-m/fpv4-sp/hard\libpic32c.a(write.o)

.stack          0x20000688      0x100
 .stack         0x20000688      0x100 stack

.data.__global_locale%1
                0x20000100      0x16c
 .data.__global_locale
                0x20000100      0x16c c:/program files/microchip/xc32/v2.40/bin/bin/../../lib/gcc/pic32c/6.2.1/../../../../pic32c/lib/v7e-m/fpv4-sp/hard\libc_nano.a(lib_a-locale.o)
                0x20000100                __global_locale

.bss.s_tasks%2  0x2000026c       0x90
 .bss.s_tasks   0x2000026c       0x90 build/same54_xplained_pro/production/_ext/1483874177/mulib_tasker.o

.data.impure_data%3
                0x200002fc       0x60
 .data.impure_data
                0x200002fc       0x60 c:/program files/microchip/xc32/v2.40/bin/bin/../../lib/gcc/pic32c/6.2.1/../../../../pic32c/lib/v7e-m/fpv4-sp/hard\libc_nano.a(lib_a-impure.o)

.bss.s_event_queue%4
                0x2000035c       0x50
 .bss.s_event_queue
                0x2000035c       0x50 build/same54_xplained_pro/production/_ext/1483874177/mulib_tasker.o

.bss.s_isr_queue_items%5
                0x200003ac       0x20
 .bss.s_isr_queue_items
                0x200003ac       0x20 build/same54_xplained_pro/production/_ext/1483874177/mulib_tasker.o

.bss.s_sched%6  0x200003cc       0x20
 .bss.s_sched   0x200003cc       0x20 build/same54_xplained_pro/production/_ext/1483874177/mulib_tasker.o

.bss%7          0x200003ec       0x1c
 .bss           0x200003ec       0x1c c:/program files/microchip/xc32/v2.40/bin/bin/../../lib/gcc/pic32c/6.2.1/v7e-m/fpv4-sp/hard/crtbegin.o

.bss.s_default_idle_task%8
                0x20000408       0x18
 .bss.s_default_idle_task
                0x20000408       0x18 build/same54_xplained_pro/production/_ext/265365281/mu_sched.o

.bss.s_screen_redraw_ctx%9
                0x20000420       0x10
 .bss.s_screen_redraw_ctx
                0x20000420       0x10 build/same54_xplained_pro/production/_ext/1483874177/mulib_tasker.o

.bss.s_isr_queue%10
                0x20000430        0xc
 .bss.s_isr_queue
                0x20000430        0xc build/same54_xplained_pro/production/_ext/1483874177/mulib_tasker.o

.bss.s_kbd_ctx%11
                0x2000043c        0xc
 .bss.s_kbd_ctx
                0x2000043c        0xc build/same54_xplained_pro/production/_ext/1483874177/mulib_tasker.o

.bss.s_button_ctx%12
                0x20000448        0x8
 .bss.s_button_ctx
                0x20000448        0x8 build/same54_xplained_pro/production/_ext/1483874177/mulib_tasker.o

.bss.s_rtc_period%13
                0x20000450        0x4
 .bss.s_rtc_period
                0x20000450        0x4 build/same54_xplained_pro/production/_ext/1483874177/mu_port.o

.bss.s_screen_update_ctx%14
                0x20000454        0x4
 .bss.s_screen_update_ctx
                0x20000454        0x4 build/same54_xplained_pro/production/_ext/1483874177/mulib_tasker.o

.data._impure_ptr%15
                0x20000458        0x4
 .data._impure_ptr
                0x20000458        0x4 c:/program files/microchip/xc32/v2.40/bin/bin/../../lib/gcc/pic32c/6.2.1/../../../../pic32c/lib/v7e-m/fpv4-sp/hard\libc_nano.a(lib_a-impure.o)
                0x20000458                _impure_ptr

.bss.__malloc_free_list%16
                0x2000045c        0x4
 .bss.__malloc_free_list
                0x2000045c        0x4 c:/program files/microchip/xc32/v2.40/bin/bin/../../lib/gcc/pic32c/6.2.1/../../../../pic32c/lib/v7e-m/fpv4-sp/hard\libc_nano.a(lib_a-nano-mallocr.o)
                0x2000045c                __malloc_free_list

.bss.__malloc_sbrk_start%17
                0x20000460        0x4
 .bss.__malloc_sbrk_start
                0x20000460        0x4 c:/program files/microchip/xc32/v2.40/bin/bin/../../lib/gcc/pic32c/6.2.1/../../../../pic32c/lib/v7e-m/fpv4-sp/hard\libc_nano.a(lib_a-nano-mallocr.o)
                0x20000460                __malloc_sbrk_start

.bss%18         0x20000464        0x4
 .bss           0x20000464        0x4 c:/program files/microchip/xc32/v2.40/bin/bin/../../lib/gcc/pic32c/6.2.1/../../../../pic32c/lib/v7e-m/fpv4-sp/hard\libpic32c.a(sbrk.o)

.bss.s_led_ctx%19
                0x20000468        0x1
 .bss.s_led_ctx
                0x20000468        0x1 build/same54_xplained_pro/production/_ext/1483874177/mulib_tasker.o

.bss.s_is_low_power_mode%20
                0x20000469        0x1
 .bss.s_is_low_power_mode
                0x20000469        0x1 build/same54_xplained_pro/production/_ext/1483874177/mulib_tasker.o

.eh_frame%z1    0x00000000        0x0
 .eh_frame      0x00000000        0x0 c:/program files/microchip/xc32/v2.40/bin/bin/../../lib/gcc/pic32c/6.2.1/v7e-m/fpv4-sp/hard/crtbegin.o

.text._vfprintf_r_cdnopsuxX%21
                0x00000284      0x3dc
 .text._vfprintf_r_cdnopsuxX
                0x00000284      0x3dc c:/program files/microchip/xc32/v2.40/bin/bin/../../lib/gcc/pic32c/6.2.1/../../../../pic32c/lib/v7e-m/fpv4-sp/hard\libc_nano.a(_lib_a-nano-vfprintf.cdnopsuxX.o)
                0x00000284                _vfprintf_r_cdnopsuxX

.dinit%22       0x00000660      0x300
 .dinit         0x00000660      0x300 data_init

.rodata%23      0x00000960      0x1d8
 .rodata        0x00000960      0x1d8 build/same54_xplained_pro/production/_ext/1483874177/screen_redraw_task.o

.text.screen_redraw_task_fn%24
                0x00000b38      0x144
 .text.screen_redraw_task_fn
                0x00000b38      0x144 build/same54_xplained_pro/production/_ext/1483874177/screen_redraw_task.o

.text.__sflush_r%25
                0x00000c7c      0x110
 .text.__sflush_r
                0x00000c7c      0x110 c:/program files/microchip/xc32/v2.40/bin/bin/../../lib/gcc/pic32c/6.2.1/../../../../pic32c/lib/v7e-m/fpv4-sp/hard\libc_nano.a(lib_a-fflush.o)
                0x00000c7c                __sflush_r

.rodata._ctype_%26
                0x00000d8c      0x101
 .rodata._ctype_
                0x00000d8c      0x101 c:/program files/microchip/xc32/v2.40/bin/bin/../../lib/gcc/pic32c/6.2.1/../../../../pic32c/lib/v7e-m/fpv4-sp/hard\libc_nano.a(lib_a-ctype_.o)
                0x00000d8c                _ctype_

.text._printf_common%27
                0x00000e8e       0xec
 .text._printf_common
                0x00000e8e       0xec c:/program files/microchip/xc32/v2.40/bin/bin/../../lib/gcc/pic32c/6.2.1/../../../../pic32c/lib/v7e-m/fpv4-sp/hard\libc_nano.a(lib_a-nano-vfprintf_i.o)
                0x00000e8e                _printf_common

.text.SERCOM2_USART_InterruptHandler%28
                0x00000f7c       0xe8
 .text.SERCOM2_USART_InterruptHandler
                0x00000f7c       0xe8 build/same54_xplained_pro/production/_ext/1547227007/plib_sercom2_usart.o
                0x00000f7c                SERCOM2_USART_InterruptHandler

.text.__swsetup_r%29
                0x00001064       0xdc
 .text.__swsetup_r
                0x00001064       0xdc c:/program files/microchip/xc32/v2.40/bin/bin/../../lib/gcc/pic32c/6.2.1/../../../../pic32c/lib/v7e-m/fpv4-sp/hard\libc_nano.a(lib_a-wsetup.o)
                0x00001064                __swsetup_r

.text._puts_r%30
                0x00001140       0xcc
 .text._puts_r  0x00001140       0xcc c:/program files/microchip/xc32/v2.40/bin/bin/../../lib/gcc/pic32c/6.2.1/../../../../pic32c/lib/v7e-m/fpv4-sp/hard\libc_nano.a(lib_a-puts.o)
                0x00001140                _puts_r

.text.mulib_tasker_init%31
                0x0000120c       0xc8
 .text.mulib_tasker_init
                0x0000120c       0xc8 build/same54_xplained_pro/production/_ext/1483874177/mulib_tasker.o
                0x0000120c                mulib_tasker_init

.text.__swbuf_r%32
                0x000012d4       0xbc
 .text.__swbuf_r
                0x000012d4       0xbc c:/program files/microchip/xc32/v2.40/bin/bin/../../lib/gcc/pic32c/6.2.1/../../../../pic32c/lib/v7e-m/fpv4-sp/hard\libc_nano.a(lib_a-wbuf.o)
                0x000012d4                __swbuf_r

.text._malloc_r%33
                0x00001390       0xbc
 .text._malloc_r
                0x00001390       0xbc c:/program files/microchip/xc32/v2.40/bin/bin/../../lib/gcc/pic32c/6.2.1/../../../../pic32c/lib/v7e-m/fpv4-sp/hard\libc_nano.a(lib_a-nano-mallocr.o)
                0x00001390                _malloc_r

.text.CLOCK_Initialize%34
                0x0000144c       0xa0
 .text.CLOCK_Initialize
                0x0000144c       0xa0 build/same54_xplained_pro/production/_ext/199192420/plib_clock.o
                0x0000144c                CLOCK_Initialize

.text%35        0x000014f0       0xa0
 .text          0x000014f0       0xa0 c:/program files/microchip/xc32/v2.40/bin/bin/../../lib/gcc/pic32c/6.2.1/../../../../pic32c/lib/v7e-m/fpv4-sp/hard\libc_nano.a(lib_a-memchr.o)
                0x000014f0                memchr

.text._free_r%36
                0x00001590       0x9c
 .text._free_r  0x00001590       0x9c c:/program files/microchip/xc32/v2.40/bin/bin/../../lib/gcc/pic32c/6.2.1/../../../../pic32c/lib/v7e-m/fpv4-sp/hard\libc_nano.a(lib_a-nano-freer.o)
                0x00001590                _free_r

.text.Reset_Handler%37
                0x0000162c       0x98
 .text.Reset_Handler
                0x0000162c       0x98 build/same54_xplained_pro/production/_ext/602300742/startup_xc32.o
                0x0000162c                Reset_Handler

.text.EIC_Initialize%38
                0x000016c4       0x88
 .text.EIC_Initialize
                0x000016c4       0x88 build/same54_xplained_pro/production/_ext/18086165/plib_eic.o
                0x000016c4                EIC_Initialize

.text.__fputwc%39
                0x0000174c       0x82
 .text.__fputwc
                0x0000174c       0x82 c:/program files/microchip/xc32/v2.40/bin/bin/../../lib/gcc/pic32c/6.2.1/../../../../pic32c/lib/v7e-m/fpv4-sp/hard\libc_nano.a(lib_a-fputwc.o)
                0x0000174c                __fputwc

.text.kbd_task_fn%40
                0x000017d0       0x80
 .text.kbd_task_fn
                0x000017d0       0x80 build/same54_xplained_pro/production/_ext/1483874177/kbd_task.o

.text.__pic32c_data_initialization%41
                0x00001850       0x80
 .text.__pic32c_data_initialization
                0x00001850       0x80 c:/program files/microchip/xc32/v2.40/bin/bin/../../lib/gcc/pic32c/6.2.1/../../../../pic32c/lib/v7e-m/fpv4-sp/hard\libpic32c.a(data_init.o)
                0x00001850                __pic32c_data_initialization

.text.__sfp%42  0x000018d0       0x78
 .text.__sfp    0x000018d0       0x78 c:/program files/microchip/xc32/v2.40/bin/bin/../../lib/gcc/pic32c/6.2.1/../../../../pic32c/lib/v7e-m/fpv4-sp/hard\libc_nano.a(lib_a-findfp.o)
                0x000018d0                __sfp

.text.__smakebuf_r%43
                0x00001948       0x78
 .text.__smakebuf_r
                0x00001948       0x78 c:/program files/microchip/xc32/v2.40/bin/bin/../../lib/gcc/pic32c/6.2.1/../../../../pic32c/lib/v7e-m/fpv4-sp/hard\libc_nano.a(lib_a-makebuf.o)
                0x00001948                __smakebuf_r

.text.mu_sched_step%44
                0x000019c0       0x6a
 .text.mu_sched_step
                0x000019c0       0x6a build/same54_xplained_pro/production/_ext/265365281/mu_sched.o
                0x000019c0                mu_sched_step

.text.sched_task_at%45
                0x00001a2a       0x68
 .text.sched_task_at
                0x00001a2a       0x68 build/same54_xplained_pro/production/_ext/265365281/mu_sched.o

.text.NVIC_Initialize%46
                0x00001a94       0x68
 .text.NVIC_Initialize
                0x00001a94       0x68 build/same54_xplained_pro/production/_ext/560952012/plib_nvic.o
                0x00001a94                NVIC_Initialize

.text.idle_task_fn%47
                0x00001afc       0x68
 .text.idle_task_fn
                0x00001afc       0x68 build/same54_xplained_pro/production/_ext/1483874177/idle_task.o

.text.mu_sched_get_task_status%48
                0x00001b64       0x66
 .text.mu_sched_get_task_status
                0x00001b64       0x66 build/same54_xplained_pro/production/_ext/265365281/mu_sched.o
                0x00001b64                mu_sched_get_task_status

.text.__sinit%49
                0x00001bcc       0x60
 .text.__sinit  0x00001bcc       0x60 c:/program files/microchip/xc32/v2.40/bin/bin/../../lib/gcc/pic32c/6.2.1/../../../../pic32c/lib/v7e-m/fpv4-sp/hard\libc_nano.a(lib_a-findfp.o)
                0x00001bcc                __sinit

.text.mu_sched_remove_task%50
                0x00001c2c       0x54
 .text.mu_sched_remove_task
                0x00001c2c       0x54 build/same54_xplained_pro/production/_ext/265365281/mu_sched.o
                0x00001c2c                mu_sched_remove_task

.text.SERCOM2_USART_Initialize%51
                0x00001c80       0x54
 .text.SERCOM2_USART_Initialize
                0x00001c80       0x54 build/same54_xplained_pro/production/_ext/1547227007/plib_sercom2_usart.o
                0x00001c80                SERCOM2_USART_Initialize

.text._fflush_r%52
                0x00001cd4       0x54
 .text._fflush_r
                0x00001cd4       0x54 c:/program files/microchip/xc32/v2.40/bin/bin/../../lib/gcc/pic32c/6.2.1/../../../../pic32c/lib/v7e-m/fpv4-sp/hard\libc_nano.a(lib_a-fflush.o)
                0x00001cd4                _fflush_r

.rodata%53      0x00001d28       0x50
 .rodata        0x00001d28       0x50 build/same54_xplained_pro/production/_ext/1483874177/mulib_tasker.o

.text._wcrtomb_r%54
                0x00001d78       0x50
 .text._wcrtomb_r
                0x00001d78       0x50 c:/program files/microchip/xc32/v2.40/bin/bin/../../lib/gcc/pic32c/6.2.1/../../../../pic32c/lib/v7e-m/fpv4-sp/hard\libc_nano.a(lib_a-wcrtomb.o)
                0x00001d78                _wcrtomb_r

.text.__ssfputs_r%55
                0x00001dc8       0x4a
 .text.__ssfputs_r
                0x00001dc8       0x4a c:/program files/microchip/xc32/v2.40/bin/bin/../../lib/gcc/pic32c/6.2.1/../../../../pic32c/lib/v7e-m/fpv4-sp/hard\libc_nano.a(lib_a-__ssfputs.o)
                0x00001dc8                __ssfputs_r

.text.SERCOM2_USART_Write%56
                0x00001e14       0x48
 .text.SERCOM2_USART_Write
                0x00001e14       0x48 build/same54_xplained_pro/production/_ext/1547227007/plib_sercom2_usart.o
                0x00001e14                SERCOM2_USART_Write

.text.__libc_init_array%57
                0x00001e5c       0x48
 .text.__libc_init_array
                0x00001e5c       0x48 c:/program files/microchip/xc32/v2.40/bin/bin/../../lib/gcc/pic32c/6.2.1/../../../../pic32c/lib/v7e-m/fpv4-sp/hard\libc_nano.a(lib_a-init.o)
                0x00001e5c                __libc_init_array

.text.std.isra.0%58
                0x00001ea4       0x48
 .text.std.isra.0
                0x00001ea4       0x48 c:/program files/microchip/xc32/v2.40/bin/bin/../../lib/gcc/pic32c/6.2.1/../../../../pic32c/lib/v7e-m/fpv4-sp/hard\libc_nano.a(lib_a-findfp.o)

.text.__swhatbuf_r%59
                0x00001eec       0x48
 .text.__swhatbuf_r
                0x00001eec       0x48 c:/program files/microchip/xc32/v2.40/bin/bin/../../lib/gcc/pic32c/6.2.1/../../../../pic32c/lib/v7e-m/fpv4-sp/hard\libc_nano.a(lib_a-makebuf.o)
                0x00001eec                __swhatbuf_r

.text.idle_task_init%60
                0x00001f34       0x44
 .text.idle_task_init
                0x00001f34       0x44 build/same54_xplained_pro/production/_ext/1483874177/idle_task.o
                0x00001f34                idle_task_init

.text%61        0x00001f78       0x40
 .text          0x00001f78       0x40 c:/program files/microchip/xc32/v2.40/bin/bin/../../lib/gcc/pic32c/6.2.1/v7e-m/fpv4-sp/hard/crtbegin.o

.text.SERCOM2_USART_Read%62
                0x00001fb8       0x40
 .text.SERCOM2_USART_Read
                0x00001fb8       0x40 build/same54_xplained_pro/production/_ext/1547227007/plib_sercom2_usart.o
                0x00001fb8                SERCOM2_USART_Read

.text.led_task_fn%63
                0x00001ff8       0x40
 .text.led_task_fn
                0x00001ff8       0x40 build/same54_xplained_pro/production/_ext/1483874177/led_task.o

.text.PORT_Initialize%64
                0x00002038       0x3c
 .text.PORT_Initialize
                0x00002038       0x3c build/same54_xplained_pro/production/_ext/561005163/plib_port.o
                0x00002038                PORT_Initialize

.text.RTC_Initialize%65
                0x00002074       0x3c
 .text.RTC_Initialize
                0x00002074       0x3c build/same54_xplained_pro/production/_ext/18098999/plib_rtc_timer.o
                0x00002074                RTC_Initialize

.text._fwalk_reent%66
                0x000020b0       0x3c
 .text._fwalk_reent
                0x000020b0       0x3c c:/program files/microchip/xc32/v2.40/bin/bin/../../lib/gcc/pic32c/6.2.1/../../../../pic32c/lib/v7e-m/fpv4-sp/hard\libc_nano.a(lib_a-fwalk.o)
                0x000020b0                _fwalk_reent

.text.write%67  0x000020ec       0x3c
 .text.write    0x000020ec       0x3c c:/program files/microchip/xc32/v2.40/bin/bin/../../lib/gcc/pic32c/6.2.1/../../../../pic32c/lib/v7e-m/fpv4-sp/hard\libpic32c.a(write.o)
                0x000020ec                write

.text.mu_task_call%68
                0x00002128       0x38
 .text.mu_task_call
                0x00002128       0x38 build/same54_xplained_pro/production/_ext/265365281/mu_task.o
                0x00002128                mu_task_call

.text.kbd_task_init%69
                0x00002160       0x38
 .text.kbd_task_init
                0x00002160       0x38 build/same54_xplained_pro/production/_ext/1483874177/kbd_task.o
                0x00002160                kbd_task_init

.text.__swrite%70
                0x00002198       0x38
 .text.__swrite
                0x00002198       0x38 c:/program files/microchip/xc32/v2.40/bin/bin/../../lib/gcc/pic32c/6.2.1/../../../../pic32c/lib/v7e-m/fpv4-sp/hard\libc_nano.a(lib_a-stdio.o)
                0x00002198                __swrite

.text.mu_sched_init%71
                0x000021d0       0x34
 .text.mu_sched_init
                0x000021d0       0x34 build/same54_xplained_pro/production/_ext/265365281/mu_sched.o
                0x000021d0                mu_sched_init

.text.button_task_init%72
                0x00002204       0x34
 .text.button_task_init
                0x00002204       0x34 build/same54_xplained_pro/production/_ext/1483874177/button_task.o
                0x00002204                button_task_init

.text.memmove%73
                0x00002238       0x34
 .text.memmove  0x00002238       0x34 c:/program files/microchip/xc32/v2.40/bin/bin/../../lib/gcc/pic32c/6.2.1/../../../../pic32c/lib/v7e-m/fpv4-sp/hard\libc_nano.a(lib_a-memmove.o)
                0x00002238                memmove

.rodata%74      0x0000226c       0x33
 .rodata        0x0000226c       0x33 c:/program files/microchip/xc32/v2.40/bin/bin/../../lib/gcc/pic32c/6.2.1/../../../../pic32c/lib/v7e-m/fpv4-sp/hard\libc_nano.a(_lib_a-nano-vfprintf.cdnopsuxX.o)

.text.mu_spscq_get%75
                0x000022a0       0x30
 .text.mu_spscq_get
                0x000022a0       0x30 build/same54_xplained_pro/production/_ext/265365281/mu_spscq.o
                0x000022a0                mu_spscq_get

.text.SYS_Initialize%76
                0x000022d0       0x30
 .text.SYS_Initialize
                0x000022d0       0x30 build/same54_xplained_pro/production/_ext/602300742/initialization.o
                0x000022d0                SYS_Initialize

.text.__sfputc_r%77
                0x00002300       0x30
 .text.__sfputc_r
                0x00002300       0x30 c:/program files/microchip/xc32/v2.40/bin/bin/../../lib/gcc/pic32c/6.2.1/../../../../pic32c/lib/v7e-m/fpv4-sp/hard\libc_nano.a(lib_a-__ssfputs.o)

.text.EIC_CallbackRegister%78
                0x00002330       0x2c
 .text.EIC_CallbackRegister
                0x00002330       0x2c build/same54_xplained_pro/production/_ext/18086165/plib_eic.o
                0x00002330                EIC_CallbackRegister

.text.mu_port_init%79
                0x0000235c       0x2c
 .text.mu_port_init
                0x0000235c       0x2c build/same54_xplained_pro/production/_ext/1483874177/mu_port.o
                0x0000235c                mu_port_init

.text.__sfmoreglue%80
                0x00002388       0x2c
 .text.__sfmoreglue
                0x00002388       0x2c c:/program files/microchip/xc32/v2.40/bin/bin/../../lib/gcc/pic32c/6.2.1/../../../../pic32c/lib/v7e-m/fpv4-sp/hard\libc_nano.a(lib_a-findfp.o)
                0x00002388                __sfmoreglue

.text._sbrk%81  0x000023b4       0x2c
 .text._sbrk    0x000023b4       0x2c c:/program files/microchip/xc32/v2.40/bin/bin/../../lib/gcc/pic32c/6.2.1/../../../../pic32c/lib/v7e-m/fpv4-sp/hard\libpic32c.a(sbrk.o)
                0x000023b4                _sbrk

.text.mu_sched_reschedule_in%82
                0x000023e0       0x2a
 .text.mu_sched_reschedule_in
                0x000023e0       0x2a build/same54_xplained_pro/production/_ext/265365281/mu_sched.o
                0x000023e0                mu_sched_reschedule_in

.text.mu_spscq_put%83
                0x0000240a       0x28
 .text.mu_spscq_put
                0x0000240a       0x28 build/same54_xplained_pro/production/_ext/265365281/mu_spscq.o
                0x0000240a                mu_spscq_put

.text.RTC_InterruptHandler%84
                0x00002434       0x28
 .text.RTC_InterruptHandler
                0x00002434       0x28 build/same54_xplained_pro/production/_ext/18098999/plib_rtc_timer.o
                0x00002434                RTC_InterruptHandler

.text.read%85   0x0000245c       0x28
 .text.read     0x0000245c       0x28 c:/program files/microchip/xc32/v2.40/bin/bin/../../lib/gcc/pic32c/6.2.1/../../../../pic32c/lib/v7e-m/fpv4-sp/hard\libpic32c.a(read.o)
                0x0000245c                read

.text.EIC_EXTINT_15_InterruptHandler%86
                0x00002484       0x24
 .text.EIC_EXTINT_15_InterruptHandler
                0x00002484       0x24 build/same54_xplained_pro/production/_ext/18086165/plib_eic.o
                0x00002484                EIC_EXTINT_15_InterruptHandler

.text.SERCOM2_USART_ErrorClear%87
                0x000024a8       0x24
 .text.SERCOM2_USART_ErrorClear
                0x000024a8       0x24 build/same54_xplained_pro/production/_ext/1547227007/plib_sercom2_usart.o

.text.kbd_task_set_low_power_mode%88
                0x000024cc       0x24
 .text.kbd_task_set_low_power_mode
                0x000024cc       0x24 build/same54_xplained_pro/production/_ext/1483874177/kbd_task.o
                0x000024cc                kbd_task_set_low_power_mode

.rodata%89      0x000024f0       0x24
 .rodata        0x000024f0       0x24 build/same54_xplained_pro/production/_ext/1483874177/kbd_task.o

.text.screen_redraw_task_init%90
                0x00002514       0x24
 .text.screen_redraw_task_init
                0x00002514       0x24 build/same54_xplained_pro/production/_ext/1483874177/screen_redraw_task.o
                0x00002514                screen_redraw_task_init

.text._printf_cdnopsuxX%91
                0x00002538       0x24
 .text._printf_cdnopsuxX
                0x00002538       0x24 c:/program files/microchip/xc32/v2.40/bin/bin/../../lib/gcc/pic32c/6.2.1/../../../../pic32c/lib/v7e-m/fpv4-sp/hard\libc_nano.a(_lib_a-printf.cdnopsuxX.o)
                0x00002538                __printf_di
                0x00002538                __printf_ucs
                0x00002538                __printf_s
                0x00002538                _printf_cdnopsuxX

.text.__sseek%92
                0x0000255c       0x24
 .text.__sseek  0x0000255c       0x24 c:/program files/microchip/xc32/v2.40/bin/bin/../../lib/gcc/pic32c/6.2.1/../../../../pic32c/lib/v7e-m/fpv4-sp/hard\libc_nano.a(lib_a-stdio.o)
                0x0000255c                __sseek

.text._write_r%93
                0x00002580       0x24
 .text._write_r
                0x00002580       0x24 c:/program files/microchip/xc32/v2.40/bin/bin/../../lib/gcc/pic32c/6.2.1/../../../../pic32c/lib/v7e-m/fpv4-sp/hard\libc_nano.a(lib_a-writer.o)
                0x00002580                _write_r

.text._fstat_r%94
                0x000025a4       0x24
 .text._fstat_r
                0x000025a4       0x24 c:/program files/microchip/xc32/v2.40/bin/bin/../../lib/gcc/pic32c/6.2.1/../../../../pic32c/lib/v7e-m/fpv4-sp/hard\libc_nano.a(lib_a-fstatr.o)
                0x000025a4                _fstat_r

.text._lseek_r%95
                0x000025c8       0x24
 .text._lseek_r
                0x000025c8       0x24 c:/program files/microchip/xc32/v2.40/bin/bin/../../lib/gcc/pic32c/6.2.1/../../../../pic32c/lib/v7e-m/fpv4-sp/hard\libc_nano.a(lib_a-lseekr.o)
                0x000025c8                _lseek_r

.text.__ascii_mbtowc%96
                0x000025ec       0x24
 .text.__ascii_mbtowc
                0x000025ec       0x24 c:/program files/microchip/xc32/v2.40/bin/bin/../../lib/gcc/pic32c/6.2.1/../../../../pic32c/lib/v7e-m/fpv4-sp/hard\libc_nano.a(lib_a-mbtowc_r.o)
                0x000025ec                __ascii_mbtowc

.text._read_r%97
                0x00002610       0x24
 .text._read_r  0x00002610       0x24 c:/program files/microchip/xc32/v2.40/bin/bin/../../lib/gcc/pic32c/6.2.1/../../../../pic32c/lib/v7e-m/fpv4-sp/hard\libc_nano.a(lib_a-readr.o)
                0x00002610                _read_r

.text.__sread%98
                0x00002634       0x22
 .text.__sread  0x00002634       0x22 c:/program files/microchip/xc32/v2.40/bin/bin/../../lib/gcc/pic32c/6.2.1/../../../../pic32c/lib/v7e-m/fpv4-sp/hard\libc_nano.a(lib_a-stdio.o)
                0x00002634                __sread

.text.mu_spscq_init%99
                0x00002656       0x20
 .text.mu_spscq_init
                0x00002656       0x20 build/same54_xplained_pro/production/_ext/265365281/mu_spscq.o
                0x00002656                mu_spscq_init

.text._mon_getc%100
                0x00002676       0x20
 .text._mon_getc
                0x00002676       0x20 build/same54_xplained_pro/production/_ext/697067648/xc32_monitor.o
                0x00002676                _mon_getc

.text.led_task_init%101
                0x00002698       0x20
 .text.led_task_init
                0x00002698       0x20 build/same54_xplained_pro/production/_ext/1483874177/led_task.o
                0x00002698                led_task_init

.rodata.__sf_fake_stderr%102
                0x000026b8       0x20
 .rodata.__sf_fake_stderr
                0x000026b8       0x20 c:/program files/microchip/xc32/v2.40/bin/bin/../../lib/gcc/pic32c/6.2.1/../../../../pic32c/lib/v7e-m/fpv4-sp/hard\libc_nano.a(lib_a-findfp.o)
                0x000026b8                __sf_fake_stderr

.rodata.__sf_fake_stdin%103
                0x000026d8       0x20
 .rodata.__sf_fake_stdin
                0x000026d8       0x20 c:/program files/microchip/xc32/v2.40/bin/bin/../../lib/gcc/pic32c/6.2.1/../../../../pic32c/lib/v7e-m/fpv4-sp/hard\libc_nano.a(lib_a-findfp.o)
                0x000026d8                __sf_fake_stdin

.rodata.__sf_fake_stdout%104
                0x000026f8       0x20
 .rodata.__sf_fake_stdout
                0x000026f8       0x20 c:/program files/microchip/xc32/v2.40/bin/bin/../../lib/gcc/pic32c/6.2.1/../../../../pic32c/lib/v7e-m/fpv4-sp/hard\libc_nano.a(lib_a-findfp.o)
                0x000026f8                __sf_fake_stdout

.text._sbrk_r%105
                0x00002718       0x20
 .text._sbrk_r  0x00002718       0x20 c:/program files/microchip/xc32/v2.40/bin/bin/../../lib/gcc/pic32c/6.2.1/../../../../pic32c/lib/v7e-m/fpv4-sp/hard\libc_nano.a(lib_a-sbrkr.o)
                0x00002718                _sbrk_r

.text._close_r%106
                0x00002738       0x20
 .text._close_r
                0x00002738       0x20 c:/program files/microchip/xc32/v2.40/bin/bin/../../lib/gcc/pic32c/6.2.1/../../../../pic32c/lib/v7e-m/fpv4-sp/hard\libc_nano.a(lib_a-closer.o)
                0x00002738                _close_r

.text._isatty_r%107
                0x00002758       0x20
 .text._isatty_r
                0x00002758       0x20 c:/program files/microchip/xc32/v2.40/bin/bin/../../lib/gcc/pic32c/6.2.1/../../../../pic32c/lib/v7e-m/fpv4-sp/hard\libc_nano.a(lib_a-isattyr.o)
                0x00002758                _isatty_r

.text.mu_sched_reschedule_now%108
                0x00002778       0x1c
 .text.mu_sched_reschedule_now
                0x00002778       0x1c build/same54_xplained_pro/production/_ext/265365281/mu_sched.o
                0x00002778                mu_sched_reschedule_now

.text.RTC_Timer32Start%109
                0x00002794       0x1c
 .text.RTC_Timer32Start
                0x00002794       0x1c build/same54_xplained_pro/production/_ext/18098999/plib_rtc_timer.o
                0x00002794                RTC_Timer32Start

.text.SERCOM2_USART_ErrorGet%110
                0x000027b0       0x1c
 .text.SERCOM2_USART_ErrorGet
                0x000027b0       0x1c build/same54_xplained_pro/production/_ext/1547227007/plib_sercom2_usart.o
                0x000027b0                SERCOM2_USART_ErrorGet

.text._mon_putc%111
                0x000027cc       0x1c
 .text._mon_putc
                0x000027cc       0x1c build/same54_xplained_pro/production/_ext/697067648/xc32_monitor.o
                0x000027cc                _mon_putc

.text.screen_update_task_init%112
                0x000027e8       0x1c
 .text.screen_update_task_init
                0x000027e8       0x1c build/same54_xplained_pro/production/_ext/1483874177/screen_update_task.o
                0x000027e8                screen_update_task_init

.text._fputwc_r%113
                0x00002804       0x1c
 .text._fputwc_r
                0x00002804       0x1c c:/program files/microchip/xc32/v2.40/bin/bin/../../lib/gcc/pic32c/6.2.1/../../../../pic32c/lib/v7e-m/fpv4-sp/hard\libc_nano.a(lib_a-fputwc.o)
                0x00002804                _fputwc_r

.text.__locale_mb_cur_max%114
                0x00002820       0x1c
 .text.__locale_mb_cur_max
                0x00002820       0x1c c:/program files/microchip/xc32/v2.40/bin/bin/../../lib/gcc/pic32c/6.2.1/../../../../pic32c/lib/v7e-m/fpv4-sp/hard\libc_nano.a(lib_a-locale.o)
                0x00002820                __locale_mb_cur_max

.text.screen_update_task_fn%115
                0x0000283c       0x1a
 .text.screen_update_task_fn
                0x0000283c       0x1a build/same54_xplained_pro/production/_ext/1483874177/screen_update_task.o

.text.__ascii_wctomb%116
                0x00002856       0x1a
 .text.__ascii_wctomb
                0x00002856       0x1a c:/program files/microchip/xc32/v2.40/bin/bin/../../lib/gcc/pic32c/6.2.1/../../../../pic32c/lib/v7e-m/fpv4-sp/hard\libc_nano.a(lib_a-wctomb_r.o)
                0x00002856                __ascii_wctomb

.text.mu_spscq_is_full%117
                0x00002870       0x18
 .text.mu_spscq_is_full
                0x00002870       0x18 build/same54_xplained_pro/production/_ext/265365281/mu_spscq.o
                0x00002870                mu_spscq_is_full

.text.PM_StandbyModeEnter%118
                0x00002888       0x18
 .text.PM_StandbyModeEnter
                0x00002888       0x18 build/same54_xplained_pro/production/_ext/554773095/plib_pm.o
                0x00002888                PM_StandbyModeEnter

.text.RTC_Timer32CounterGet%119
                0x000028a0       0x18
 .text.RTC_Timer32CounterGet
                0x000028a0       0x18 build/same54_xplained_pro/production/_ext/18098999/plib_rtc_timer.o
                0x000028a0                RTC_Timer32CounterGet

.text.SUPC_SelectVoltageRegulator%120
                0x000028b8       0x18
 .text.SUPC_SelectVoltageRegulator
                0x000028b8       0x18 build/same54_xplained_pro/production/_ext/561100223/plib_supc.o
                0x000028b8                SUPC_SelectVoltageRegulator

.text.mulib_tasker_start_led_task%121
                0x000028d0       0x18
 .text.mulib_tasker_start_led_task
                0x000028d0       0x18 build/same54_xplained_pro/production/_ext/1483874177/mulib_tasker.o
                0x000028d0                mulib_tasker_start_led_task

.text.mulib_tasker_start_screen_update_task%122
                0x000028e8       0x18
 .text.mulib_tasker_start_screen_update_task
                0x000028e8       0x18 build/same54_xplained_pro/production/_ext/1483874177/mulib_tasker.o
                0x000028e8                mulib_tasker_start_screen_update_task

.text.mu_sched_get_next_event%123
                0x00002900       0x16
 .text.mu_sched_get_next_event
                0x00002900       0x16 build/same54_xplained_pro/production/_ext/265365281/mu_sched.o
                0x00002900                mu_sched_get_next_event

.text.mu_sched_task_now%124
                0x00002916       0x16
 .text.mu_sched_task_now
                0x00002916       0x16 build/same54_xplained_pro/production/_ext/265365281/mu_sched.o
                0x00002916                mu_sched_task_now

.text.mu_task_init%125
                0x0000292c       0x16
 .text.mu_task_init
                0x0000292c       0x16 build/same54_xplained_pro/production/_ext/265365281/mu_task.o
                0x0000292c                mu_task_init

.text.mu_sched_reset%126
                0x00002942       0x14
 .text.mu_sched_reset
                0x00002942       0x14 build/same54_xplained_pro/production/_ext/265365281/mu_sched.o
                0x00002942                mu_sched_reset

.text.PM_Initialize%127
                0x00002958       0x14
 .text.PM_Initialize
                0x00002958       0x14 build/same54_xplained_pro/production/_ext/554773095/plib_pm.o
                0x00002958                PM_Initialize

.text.RTC_Timer32Compare0Set%128
                0x0000296c       0x14
 .text.RTC_Timer32Compare0Set
                0x0000296c       0x14 build/same54_xplained_pro/production/_ext/18098999/plib_rtc_timer.o
                0x0000296c                RTC_Timer32Compare0Set

.text.SUPC_Initialize%129
                0x00002980       0x14
 .text.SUPC_Initialize
                0x00002980       0x14 build/same54_xplained_pro/production/_ext/561100223/plib_supc.o
                0x00002980                SUPC_Initialize

.text.mulib_tasker_stop_led_task%130
                0x00002994       0x14
 .text.mulib_tasker_stop_led_task
                0x00002994       0x14 build/same54_xplained_pro/production/_ext/1483874177/mulib_tasker.o
                0x00002994                mulib_tasker_stop_led_task

.text.mulib_tasker_stop_screen_update_task%131
                0x000029a8       0x14
 .text.mulib_tasker_stop_screen_update_task
                0x000029a8       0x14 build/same54_xplained_pro/production/_ext/1483874177/mulib_tasker.o
                0x000029a8                mulib_tasker_stop_screen_update_task

.text._vfprintf_cdnopsuxX%132
                0x000029bc       0x14
 .text._vfprintf_cdnopsuxX
                0x000029bc       0x14 c:/program files/microchip/xc32/v2.40/bin/bin/../../lib/gcc/pic32c/6.2.1/../../../../pic32c/lib/v7e-m/fpv4-sp/hard\libc_nano.a(_lib_a-nano-vfprintf.cdnopsuxX.o)
                0x000029bc                _vfprintf_cdnopsuxX

.text.mu_sched_task_from_isr%133
                0x000029d0       0x12
 .text.mu_sched_task_from_isr
                0x000029d0       0x12 build/same54_xplained_pro/production/_ext/265365281/mu_sched.o
                0x000029d0                mu_sched_task_from_isr

.text.main%134  0x000029e2       0x12
 .text.main     0x000029e2       0x12 build/same54_xplained_pro/production/_ext/1360937237/main.o
                0x000029e2                main

.text.BSP_Initialize%135
                0x000029f4       0x10
 .text.BSP_Initialize
                0x000029f4       0x10 build/same54_xplained_pro/production/_ext/465512950/bsp.o
                0x000029f4                BSP_Initialize

.text.EIC_InterruptEnable%136
                0x00002a04       0x10
 .text.EIC_InterruptEnable
                0x00002a04       0x10 build/same54_xplained_pro/production/_ext/18086165/plib_eic.o
                0x00002a04                EIC_InterruptEnable

.rodata%137     0x00002a14       0x10
 .rodata        0x00002a14       0x10 build/same54_xplained_pro/production/_ext/1483874177/screen_update_task.o

.text.mulib_tasker_step%138
                0x00002a24       0x10
 .text.mulib_tasker_step
                0x00002a24       0x10 build/same54_xplained_pro/production/_ext/1483874177/mulib_tasker.o
                0x00002a24                mulib_tasker_step

.text.mulib_tasker_set_low_power_mode%139
                0x00002a34       0x10
 .text.mulib_tasker_set_low_power_mode
                0x00002a34       0x10 build/same54_xplained_pro/production/_ext/1483874177/mulib_tasker.o
                0x00002a34                mulib_tasker_set_low_power_mode

.text.puts%140  0x00002a44       0x10
 .text.puts     0x00002a44       0x10 c:/program files/microchip/xc32/v2.40/bin/bin/../../lib/gcc/pic32c/6.2.1/../../../../pic32c/lib/v7e-m/fpv4-sp/hard\libc_nano.a(lib_a-puts.o)
                0x00002a44                puts

.text.memset%141
                0x00002a54       0x10
 .text.memset   0x00002a54       0x10 c:/program files/microchip/xc32/v2.40/bin/bin/../../lib/gcc/pic32c/6.2.1/../../../../pic32c/lib/v7e-m/fpv4-sp/hard\libc_nano.a(lib_a-memset.o)
                0x00002a54                memset

.text.mu_time_follows%142
                0x00002a64        0xe
 .text.mu_time_follows
                0x00002a64        0xe build/same54_xplained_pro/production/_ext/265365281/mu_time.o
                0x00002a64                mu_time_follows

.text.NVMCTRL_Initialize%143
                0x00002a74        0xc
 .text.NVMCTRL_Initialize
                0x00002a74        0xc build/same54_xplained_pro/production/_ext/392550042/plib_nvmctrl.o
                0x00002a74                NVMCTRL_Initialize

.text.RTC_Timer32InterruptEnable%144
                0x00002a80        0xc
 .text.RTC_Timer32InterruptEnable
                0x00002a80        0xc build/same54_xplained_pro/production/_ext/18098999/plib_rtc_timer.o
                0x00002a80                RTC_Timer32InterruptEnable

.text.RTC_Timer32CallbackRegister%145
                0x00002a8c        0xc
 .text.RTC_Timer32CallbackRegister
                0x00002a8c        0xc build/same54_xplained_pro/production/_ext/18098999/plib_rtc_timer.o
                0x00002a8c                RTC_Timer32CallbackRegister

.text.SERCOM2_USART_ReadCallbackRegister%146
                0x00002a98        0xc
 .text.SERCOM2_USART_ReadCallbackRegister
                0x00002a98        0xc build/same54_xplained_pro/production/_ext/1547227007/plib_sercom2_usart.o
                0x00002a98                SERCOM2_USART_ReadCallbackRegister

.text.button_task_fn%147
                0x00002aa4        0xc
 .text.button_task_fn
                0x00002aa4        0xc build/same54_xplained_pro/production/_ext/1483874177/button_task.o

.text.button_cb%148
                0x00002ab0        0xc
 .text.button_cb
                0x00002ab0        0xc build/same54_xplained_pro/production/_ext/1483874177/button_task.o

.rodata%149     0x00002abc       0x18
 .rodata        0x00002abc        0xc build/same54_xplained_pro/production/_ext/1483874177/button_task.o
 .rodata        0x00002ac8        0xc build/same54_xplained_pro/production/_ext/1483874177/idle_task.o

.text.kbd_cb%151
                0x00002ad4        0xc
 .text.kbd_cb   0x00002ad4        0xc build/same54_xplained_pro/production/_ext/1483874177/kbd_task.o

.text.mulib_tasker_is_low_power_mode%152
                0x00002ae0        0xc
 .text.mulib_tasker_is_low_power_mode
                0x00002ae0        0xc build/same54_xplained_pro/production/_ext/1483874177/mulib_tasker.o
                0x00002ae0                mulib_tasker_is_low_power_mode

.text._cleanup_r%153
                0x00002aec        0xc
 .text._cleanup_r
                0x00002aec        0xc c:/program files/microchip/xc32/v2.40/bin/bin/../../lib/gcc/pic32c/6.2.1/../../../../pic32c/lib/v7e-m/fpv4-sp/hard\libc_nano.a(lib_a-findfp.o)
                0x00002aec                _cleanup_r

.text.fstat%154
                0x00002af8        0xc
 .text.fstat    0x00002af8        0xc c:/program files/microchip/xc32/v2.40/bin/bin/../../lib/gcc/pic32c/6.2.1/../../../../pic32c/lib/v7e-m/fpv4-sp/hard\libpic32c.a(fstat.o)
                0x00002af8                fstat

.rodata%155     0x00002b04        0xb
 .rodata        0x00002b04        0xb c:/program files/microchip/xc32/v2.40/bin/bin/../../lib/gcc/pic32c/6.2.1/../../../../pic32c/lib/v7e-m/fpv4-sp/hard\libc_nano.a(lib_a-locale.o)

.text.mu_spscq_reset%156
                0x00002b10        0xa
 .text.mu_spscq_reset
                0x00002b10        0xa build/same54_xplained_pro/production/_ext/265365281/mu_spscq.o
                0x00002b10                mu_spscq_reset

.text.mu_sched_get_current_time%157
                0x00002b1a        0x8
 .text.mu_sched_get_current_time
                0x00002b1a        0x8 build/same54_xplained_pro/production/_ext/265365281/mu_sched.o
                0x00002b1a                mu_sched_get_current_time

.rodata%158     0x00002b24        0x8
 .rodata        0x00002b24        0x8 build/same54_xplained_pro/production/_ext/265365281/mu_sched.o

.text.mu_time_offset%159
                0x00002b2c        0x8
 .text.mu_time_offset
                0x00002b2c        0x8 build/same54_xplained_pro/production/_ext/265365281/mu_time.o
                0x00002b2c                mu_time_offset

.text.mu_time_difference%160
                0x00002b34        0x8
 .text.mu_time_difference
                0x00002b34        0x8 build/same54_xplained_pro/production/_ext/265365281/mu_time.o
                0x00002b34                mu_time_difference

.text.mu_time_precedes%161
                0x00002b3c        0x8
 .text.mu_time_precedes
                0x00002b3c        0x8 build/same54_xplained_pro/production/_ext/265365281/mu_time.o
                0x00002b3c                mu_time_precedes

.text.mu_time_now%162
                0x00002b44        0x8
 .text.mu_time_now
                0x00002b44        0x8 build/same54_xplained_pro/production/_ext/265365281/mu_time.o
                0x00002b44                mu_time_now

.text.mu_port_rtc_now%163
                0x00002b4c        0x8
 .text.mu_port_rtc_now
                0x00002b4c        0x8 build/same54_xplained_pro/production/_ext/1483874177/mu_port.o
                0x00002b4c                mu_port_rtc_now

.text.__sclose%164
                0x00002b54        0x8
 .text.__sclose
                0x00002b54        0x8 c:/program files/microchip/xc32/v2.40/bin/bin/../../lib/gcc/pic32c/6.2.1/../../../../pic32c/lib/v7e-m/fpv4-sp/hard\libc_nano.a(lib_a-stdio.o)
                0x00002b54                __sclose

.text.close%165
                0x00002b5c        0x8
 .text.close    0x00002b5c        0x8 c:/program files/microchip/xc32/v2.40/bin/bin/../../lib/gcc/pic32c/6.2.1/../../../../pic32c/lib/v7e-m/fpv4-sp/hard\libpic32c.a(close.o)
                0x00002b5c                close

.text.RTC_Timer32FrequencyGet%166
                0x00002b64        0x6
 .text.RTC_Timer32FrequencyGet
                0x00002b64        0x6 build/same54_xplained_pro/production/_ext/18098999/plib_rtc_timer.o
                0x00002b64                RTC_Timer32FrequencyGet

.text.mu_port_time_precedes%167
                0x00002b6a        0x6
 .text.mu_port_time_precedes
                0x00002b6a        0x6 build/same54_xplained_pro/production/_ext/1483874177/mu_port.o
                0x00002b6a                mu_port_time_precedes

.text.mu_sched_set_idle_task%168
                0x000014ec        0x4
 .text.mu_sched_set_idle_task
                0x000014ec        0x4 build/same54_xplained_pro/production/_ext/265365281/mu_sched.o
                0x000014ec                mu_sched_set_idle_task

.text.mu_task_name%169
                0x00002b70        0x4
 .text.mu_task_name
                0x00002b70        0x4 build/same54_xplained_pro/production/_ext/265365281/mu_task.o
                0x00002b70                mu_task_name

.text.mu_task_call_count%170
                0x00002b74        0x4
 .text.mu_task_call_count
                0x00002b74        0x4 build/same54_xplained_pro/production/_ext/265365281/mu_task.o
                0x00002b74                mu_task_call_count

.text.rtc_callback%171
                0x00002b78        0x4
 .text.rtc_callback
                0x00002b78        0x4 build/same54_xplained_pro/production/_ext/1483874177/idle_task.o

.rodata%172     0x00002b7c        0x4
 .rodata        0x00002b7c        0x4 build/same54_xplained_pro/production/_ext/1483874177/led_task.o

.text.mu_port_time_offset%173
                0x00002b80        0x4
 .text.mu_port_time_offset
                0x00002b80        0x4 build/same54_xplained_pro/production/_ext/1483874177/mu_port.o
                0x00002b80                mu_port_time_offset

.text.mu_port_time_difference%174
                0x00002b84        0x4
 .text.mu_port_time_difference
                0x00002b84        0x4 build/same54_xplained_pro/production/_ext/1483874177/mu_port.o
                0x00002b84                mu_port_time_difference

.rodata._global_impure_ptr%175
                0x00002b88        0x4
 .rodata._global_impure_ptr
                0x00002b88        0x4 c:/program files/microchip/xc32/v2.40/bin/bin/../../lib/gcc/pic32c/6.2.1/../../../../pic32c/lib/v7e-m/fpv4-sp/hard\libc_nano.a(lib_a-impure.o)
                0x00002b88                _global_impure_ptr

.text._close%176
                0x00002b8c        0x4
 .text._close   0x00002b8c        0x4 c:/program files/microchip/xc32/v2.40/bin/bin/../../lib/gcc/pic32c/6.2.1/../../../../pic32c/lib/v7e-m/fpv4-sp/hard\libpic32c.a(_close.o)
                0x00002b8c                _close

.text._fstat%177
                0x00002b90        0x4
 .text._fstat   0x00002b90        0x4 c:/program files/microchip/xc32/v2.40/bin/bin/../../lib/gcc/pic32c/6.2.1/../../../../pic32c/lib/v7e-m/fpv4-sp/hard\libpic32c.a(_fstat.o)
                0x00002b90                _fstat

.text._isatty%178
                0x00002b94        0x4
 .text._isatty  0x00002b94        0x4 c:/program files/microchip/xc32/v2.40/bin/bin/../../lib/gcc/pic32c/6.2.1/../../../../pic32c/lib/v7e-m/fpv4-sp/hard\libpic32c.a(_isatty.o)
                0x00002b94                _isatty

.text._lseek%179
                0x00002b98        0x4
 .text._lseek   0x00002b98        0x4 c:/program files/microchip/xc32/v2.40/bin/bin/../../lib/gcc/pic32c/6.2.1/../../../../pic32c/lib/v7e-m/fpv4-sp/hard\libpic32c.a(_lseek.o)
                0x00002b98                _lseek

.text._read%180
                0x00002b9c        0x4
 .text._read    0x00002b9c        0x4 c:/program files/microchip/xc32/v2.40/bin/bin/../../lib/gcc/pic32c/6.2.1/../../../../pic32c/lib/v7e-m/fpv4-sp/hard\libpic32c.a(_read.o)
                0x00002b9c                _read

.text._write%181
                0x00002ba0        0x4
 .text._write   0x00002ba0        0x4 c:/program files/microchip/xc32/v2.40/bin/bin/../../lib/gcc/pic32c/6.2.1/../../../../pic32c/lib/v7e-m/fpv4-sp/hard\libpic32c.a(_write.o)
                0x00002ba0                _write

.text.isatty%182
                0x00002ba4        0x4
 .text.isatty   0x00002ba4        0x4 c:/program files/microchip/xc32/v2.40/bin/bin/../../lib/gcc/pic32c/6.2.1/../../../../pic32c/lib/v7e-m/fpv4-sp/hard\libpic32c.a(isatty.o)
                0x00002ba4                isatty

.text.lseek%183
                0x00002ba8        0x4
 .text.lseek    0x00002ba8        0x4 c:/program files/microchip/xc32/v2.40/bin/bin/../../lib/gcc/pic32c/6.2.1/../../../../pic32c/lib/v7e-m/fpv4-sp/hard\libpic32c.a(lseek.o)
                0x00002ba8                lseek

.text.default_idle_fn%184
                0x00000f7a        0x2
 .text.default_idle_fn
                0x00000f7a        0x2 build/same54_xplained_pro/production/_ext/265365281/mu_sched.o

.text.EVSYS_Initialize%185
                0x000017ce        0x2
 .text.EVSYS_Initialize
                0x000017ce        0x2 build/same54_xplained_pro/production/_ext/201341906/plib_evsys.o
                0x000017ce                EVSYS_Initialize

.text.Dummy_Handler%186
                0x00001a92        0x2
 .text.Dummy_Handler
                0x00001a92        0x2 build/same54_xplained_pro/production/_ext/602300742/interrupts.o
                0x00001a92                EIC_EXTINT_9_Handler
                0x00001a92                TCC0_MC5_Handler
                0x00001a92                SVCall_Handler
                0x00001a92                SERCOM0_2_Handler
                0x00001a92                USB_SOF_HSOF_Handler
                0x00001a92                TCC4_OTHER_Handler
                0x00001a92                TCC2_MC2_Handler
                0x00001a92                EVSYS_0_Handler
                0x00001a92                TRNG_Handler
                0x00001a92                TC2_Handler
                0x00001a92                USB_TRCPT0_Handler
                0x00001a92                DAC_OTHER_Handler
                0x00001a92                AC_Handler
                0x00001a92                DAC_EMPTY_0_Handler
                0x00001a92                DMAC_OTHER_Handler
                0x00001a92                EIC_EXTINT_5_Handler
                0x00001a92                SERCOM3_1_Handler
                0x00001a92                SysTick_Handler
                0x00001a92                SERCOM4_OTHER_Handler
                0x00001a92                SERCOM3_2_Handler
                0x00001a92                EIC_EXTINT_6_Handler
                0x00001a92                PendSV_Handler
                0x00001a92                TC7_Handler
                0x00001a92                TCC4_MC0_Handler
                0x00001a92                EVSYS_3_Handler
                0x00001a92                QSPI_Handler
                0x00001a92                TCC2_MC0_Handler
                0x00001a92                PDEC_OTHER_Handler
                0x00001a92                TCC3_MC0_Handler
                0x00001a92                PDEC_MC1_Handler
                0x00001a92                TCC2_MC1_Handler
                0x00001a92                OSCCTRL_XOSC1_Handler
                0x00001a92                PDEC_MC0_Handler
                0x00001a92                EIC_EXTINT_4_Handler
                0x00001a92                EIC_EXTINT_7_Handler
                0x00001a92                SERCOM0_OTHER_Handler
                0x00001a92                EVSYS_OTHER_Handler
                0x00001a92                SERCOM0_0_Handler
                0x00001a92                SERCOM4_0_Handler
                0x00001a92                TCC1_MC0_Handler
                0x00001a92                SERCOM1_OTHER_Handler
                0x00001a92                TCC2_OTHER_Handler
                0x00001a92                EIC_EXTINT_11_Handler
                0x00001a92                SUPC_BODDET_Handler
                0x00001a92                EIC_EXTINT_14_Handler
                0x00001a92                OSC32KCTRL_Handler
                0x00001a92                SERCOM6_2_Handler
                0x00001a92                EVSYS_1_Handler
                0x00001a92                TC6_Handler
                0x00001a92                TCC4_MC1_Handler
                0x00001a92                DMAC_0_Handler
                0x00001a92                SUPC_OTHER_Handler
                0x00001a92                WDT_Handler
                0x00001a92                CAN0_Handler
                0x00001a92                SERCOM6_0_Handler
                0x00001a92                EIC_EXTINT_1_Handler
                0x00001a92                TCC3_MC1_Handler
                0x00001a92                SERCOM5_0_Handler
                0x00001a92                TC4_Handler
                0x00001a92                TC1_Handler
                0x00001a92                TCC1_MC1_Handler
                0x00001a92                EIC_EXTINT_0_Handler
                0x00001a92                TCC1_OTHER_Handler
                0x00001a92                PAC_Handler
                0x00001a92                SERCOM4_1_Handler
                0x00001a92                TC3_Handler
                0x00001a92                Dummy_Handler
                0x00001a92                DAC_RESRDY_0_Handler
                0x00001a92                SERCOM5_1_Handler
                0x00001a92                DMAC_2_Handler
                0x00001a92                TCC0_MC4_Handler
                0x00001a92                USB_TRCPT1_Handler
                0x00001a92                SERCOM0_1_Handler
                0x00001a92                TCC0_MC3_Handler
                0x00001a92                EIC_EXTINT_12_Handler
                0x00001a92                OSCCTRL_DPLL0_Handler
                0x00001a92                SERCOM6_OTHER_Handler
                0x00001a92                SERCOM7_1_Handler
                0x00001a92                SERCOM5_OTHER_Handler
                0x00001a92                PM_Handler
                0x00001a92                OSCCTRL_DFLL_Handler
                0x00001a92                SERCOM7_0_Handler
                0x00001a92                DAC_RESRDY_1_Handler
                0x00001a92                DMAC_1_Handler
                0x00001a92                USB_OTHER_Handler
                0x00001a92                GMAC_Handler
                0x00001a92                SDHC1_Handler
                0x00001a92                SERCOM7_2_Handler
                0x00001a92                CAN1_Handler
                0x00001a92                TCC0_OTHER_Handler
                0x00001a92                EIC_EXTINT_10_Handler
                0x00001a92                TCC1_MC3_Handler
                0x00001a92                OSCCTRL_XOSC0_Handler
                0x00001a92                SERCOM6_1_Handler
                0x00001a92                TCC0_MC0_Handler
                0x00001a92                EIC_EXTINT_2_Handler
                0x00001a92                SDHC0_Handler
                0x00001a92                SERCOM1_1_Handler
                0x00001a92                I2S_Handler
                0x00001a92                PCC_Handler
                0x00001a92                TCC3_OTHER_Handler
                0x00001a92                EIC_EXTINT_13_Handler
                0x00001a92                SERCOM1_0_Handler
                0x00001a92                PUKCC_Handler
                0x00001a92                SERCOM1_2_Handler
                0x00001a92                SERCOM3_0_Handler
                0x00001a92                SERCOM4_2_Handler
                0x00001a92                TCC1_MC2_Handler
                0x00001a92                ADC1_RESRDY_Handler
                0x00001a92                NVMCTRL_1_Handler
                0x00001a92                SERCOM5_2_Handler
                0x00001a92                DAC_EMPTY_1_Handler
                0x00001a92                ADC1_OTHER_Handler
                0x00001a92                OSCCTRL_DPLL1_Handler
                0x00001a92                EIC_EXTINT_3_Handler
                0x00001a92                SERCOM3_OTHER_Handler
                0x00001a92                EIC_EXTINT_8_Handler
                0x00001a92                NVMCTRL_0_Handler
                0x00001a92                ADC0_RESRDY_Handler
                0x00001a92                ADC0_OTHER_Handler
                0x00001a92                MCLK_Handler
                0x00001a92                SERCOM7_OTHER_Handler
                0x00001a92                EVSYS_2_Handler
                0x00001a92                FREQM_Handler
                0x00001a92                TC0_Handler
                0x00001a92                TCC0_MC1_Handler
                0x00001a92                DMAC_3_Handler
                0x00001a92                RAMECC_Handler
                0x00001a92                TC5_Handler
                0x00001a92                AES_Handler
                0x00001a92                ICM_Handler
                0x00001a92                TCC0_MC2_Handler

.text.NonMaskableInt_Handler%187
                0x00001bca        0x2
 .text.NonMaskableInt_Handler
                0x00001bca        0x2 build/same54_xplained_pro/production/_ext/602300742/exceptions.o
                0x00001bca                NonMaskableInt_Handler

.text.HardFault_Handler%188
                0x00001e12        0x2
 .text.HardFault_Handler
                0x00001e12        0x2 build/same54_xplained_pro/production/_ext/602300742/exceptions.o
                0x00001e12                HardFault_Handler

.text.DebugMonitor_Handler%189
                0x00002432        0x2
 .text.DebugMonitor_Handler
                0x00002432        0x2 build/same54_xplained_pro/production/_ext/602300742/exceptions.o
                0x00002432                DebugMonitor_Handler

.text.MemoryManagement_Handler%190
                0x00002696        0x2
 .text.MemoryManagement_Handler
                0x00002696        0x2 build/same54_xplained_pro/production/_ext/602300742/exceptions.o
                0x00002696                MemoryManagement_Handler

.text.BusFault_Handler%191
                0x00002956        0x2
 .text.BusFault_Handler
                0x00002956        0x2 build/same54_xplained_pro/production/_ext/602300742/exceptions.o
                0x00002956                BusFault_Handler

.text.UsageFault_Handler%192
                0x00002a72        0x2
 .text.UsageFault_Handler
                0x00002a72        0x2 build/same54_xplained_pro/production/_ext/602300742/exceptions.o
                0x00002a72                UsageFault_Handler

.text.__malloc_lock%193
                0x00002b22        0x2
 .text.__malloc_lock
                0x00002b22        0x2 c:/program files/microchip/xc32/v2.40/bin/bin/../../lib/gcc/pic32c/6.2.1/../../../../pic32c/lib/v7e-m/fpv4-sp/hard\libc_nano.a(lib_a-mlock.o)
                0x00002b22                __malloc_lock

.text.__malloc_unlock%194
                0x00002bac        0x2
 .text.__malloc_unlock
                0x00002bac        0x2 c:/program files/microchip/xc32/v2.40/bin/bin/../../lib/gcc/pic32c/6.2.1/../../../../pic32c/lib/v7e-m/fpv4-sp/hard\libc_nano.a(lib_a-mlock.o)
                0x00002bac                __malloc_unlock
